Archive member included because of file (symbol)

c:/mios32_toolchain/bin/../lib/gcc/arm-none-eabi/4.5.1/thumb/v7m\libgcc.a(_arm_muldivdf3.o)
                              project_build//C/mios32/trunk/mios32/common/mios32_osc.o (__aeabi_dmul)
c:/mios32_toolchain/bin/../lib/gcc/arm-none-eabi/4.5.1/thumb/v7m\libgcc.a(_arm_fixdfsi.o)
                              project_build//C/mios32/trunk/mios32/common/mios32_osc.o (__aeabi_d2iz)
c:/mios32_toolchain/bin/../lib/gcc/arm-none-eabi/4.5.1/thumb/v7m\libgcc.a(_arm_muldivsf3.o)
                              project_build//C/mios32/trunk/mios32/common/mios32_osc.o (__aeabi_fmul)
c:/mios32_toolchain/bin/../lib/gcc/arm-none-eabi/4.5.1/thumb/v7m\libgcc.a(_arm_fixsfsi.o)
                              project_build//C/mios32/trunk/mios32/common/mios32_osc.o (__aeabi_f2iz)
c:/mios32_toolchain/bin/../lib/gcc/arm-none-eabi/4.5.1/../../../../arm-none-eabi/lib/thumb/v7m\libg.a(lib_a-init.o)
                              project_build//C/mios32/trunk/programming_models/traditional/main.o (__libc_init_array)
c:/mios32_toolchain/bin/../lib/gcc/arm-none-eabi/4.5.1/../../../../arm-none-eabi/lib/thumb/v7m\libg.a(lib_a-memcpy.o)
                              project_build//C/mios32/trunk/FreeRTOS/Source/queue.o (memcpy)
c:/mios32_toolchain/bin/../lib/gcc/arm-none-eabi/4.5.1/../../../../arm-none-eabi/lib/thumb/v7m\libg.a(lib_a-memmove.o)
                              project_build//C/mios32/trunk/FreeRTOS/Source/portable/MemMang/umm_malloc.o (memmove)
c:/mios32_toolchain/bin/../lib/gcc/arm-none-eabi/4.5.1/../../../../arm-none-eabi/lib/thumb/v7m\libg.a(lib_a-memset.o)
                              project_build//C/mios32/trunk/FreeRTOS/Source/tasks.o (memset)
c:/mios32_toolchain/bin/../lib/gcc/arm-none-eabi/4.5.1/../../../../arm-none-eabi/lib/thumb/v7m\libg.a(lib_a-stpcpy.o)
                              project_build//C/mios32/trunk/mios32/common/mios32_osc.o (stpcpy)
c:/mios32_toolchain/bin/../lib/gcc/arm-none-eabi/4.5.1/../../../../arm-none-eabi/lib/thumb/v7m\libg.a(lib_a-strcpy.o)
                              project_build//C/mios32/trunk/mios32/common/mios32_midi.o (strcpy)
c:/mios32_toolchain/bin/../lib/gcc/arm-none-eabi/4.5.1/../../../../arm-none-eabi/lib/thumb/v7m\libg.a(lib_a-strlen.o)
                              project_build//C/mios32/trunk/mios32/common/mios32_midi.o (strlen)
c:/mios32_toolchain/bin/../lib/gcc/arm-none-eabi/4.5.1/../../../../arm-none-eabi/lib/thumb/v7m\libg.a(lib_a-strncmp.o)
                              project_build//C/mios32/trunk/mios32/common/mios32_osc.o (strncmp)
c:/mios32_toolchain/bin/../lib/gcc/arm-none-eabi/4.5.1/../../../../arm-none-eabi/lib/thumb/v7m\libg.a(lib_a-strncpy.o)
                              project_build//C/mios32/trunk/FreeRTOS/Source/tasks.o (strncpy)

Allocating common symbols
Common symbol       size              file

SaveRState          0x2               project_build//C/mios32/trunk/drivers/STM32F10x/v3.3.0/STM32_USB-FS-Device_Driver/src/usb_int.o
heapInfo            0xc               project_build//C/mios32/trunk/FreeRTOS/Source/portable/MemMang/umm_malloc.o
font_bitmap         0xc               project_build//C/mios32/trunk/mios32/common/mios32_lcd.o
mios32_srio_din_changed
                    0x10              project_build//C/mios32/trunk/mios32/common/mios32_srio.o
last_velocity       0x4               project_build/app.o
pProperty           0x4               project_build//C/mios32/trunk/mios32/STM32F10x/mios32_usb.o
xQueueRegistry      0x50              project_build//C/mios32/trunk/FreeRTOS/Source/queue.o
mios32_lcd_y        0x2               project_build//C/mios32/trunk/mios32/common/mios32_lcd.o
mios32_srio_dout    0x10              project_build//C/mios32/trunk/mios32/common/mios32_srio.o
SaveTState          0x2               project_build//C/mios32/trunk/drivers/STM32F10x/v3.3.0/STM32_USB-FS-Device_Driver/src/usb_int.o
pUser_Standard_Requests
                    0x4               project_build//C/mios32/trunk/mios32/STM32F10x/mios32_usb.o
mios32_lcd_column   0x2               project_build//C/mios32/trunk/mios32/common/mios32_lcd.o
MIOS32_IIC_unexpected_event
                    0x4               project_build//C/mios32/trunk/mios32/STM32F10x/mios32_iic.o
enc_config          0x100             project_build//C/mios32/trunk/mios32/common/mios32_enc.o
StatusInfo          0x2               project_build//C/mios32/trunk/drivers/STM32F10x/v3.3.0/STM32_USB-FS-Device_Driver/src/usb_core.o
pInformation        0x4               project_build//C/mios32/trunk/mios32/STM32F10x/mios32_usb.o
selected_midi_port  0x4               project_build/app.o
enc_state           0x200             project_build//C/mios32/trunk/mios32/common/mios32_enc.o
mios32_lcd_cursor_map
                    0x4               project_build//C/mios32/trunk/mios32/common/mios32_lcd.o
mios32_lcd_line     0x2               project_build//C/mios32/trunk/mios32/common/mios32_lcd.o
mios32_srio_din_buffer
                    0x10              project_build//C/mios32/trunk/mios32/common/mios32_srio.o
umm_heap            0x27fc            project_build//C/mios32/trunk/FreeRTOS/Source/portable/MemMang/umm_malloc.o
no_velocity         0x4               project_build/app.o
mios32_lcd_type     0x1               project_build//C/mios32/trunk/mios32/common/mios32_lcd.o
Device_Table        0x2               project_build//C/mios32/trunk/mios32/STM32F10x/mios32_usb.o
mios32_lcd_x        0x2               project_build//C/mios32/trunk/mios32/common/mios32_lcd.o
mios32_srio_din     0x10              project_build//C/mios32/trunk/mios32/common/mios32_srio.o

Discarded input sections

 .text          0x00000000        0x0 project_build/app.o
 .data          0x00000000        0x0 project_build/app.o
 .bss           0x00000000        0x0 project_build/app.o
 .text.APP_SRIO_ServicePrepare
                0x00000000        0x2 project_build/app.o
 .text.APP_SRIO_ServiceFinish
                0x00000000        0x2 project_build/app.o
 .text          0x00000000        0x0 project_build//C/mios32/trunk/programming_models/traditional/main.o
 .data          0x00000000        0x0 project_build//C/mios32/trunk/programming_models/traditional/main.o
 .bss           0x00000000        0x0 project_build//C/mios32/trunk/programming_models/traditional/main.o
 .text.SRIO_ServiceFinish
                0x00000000        0xc project_build//C/mios32/trunk/programming_models/traditional/main.o
 .text.vApplicationMallocFailedHook
                0x00000000       0x50 project_build//C/mios32/trunk/programming_models/traditional/main.o
 .text.exit     0x00000000       0x3c project_build//C/mios32/trunk/programming_models/traditional/main.o
 .bss.__dso_handle
                0x00000000        0x4 project_build//C/mios32/trunk/programming_models/traditional/main.o
 .text          0x00000000        0x0 project_build//C/mios32/trunk/FreeRTOS/Source/tasks.o
 .data          0x00000000        0x0 project_build//C/mios32/trunk/FreeRTOS/Source/tasks.o
 .bss           0x00000000        0x0 project_build//C/mios32/trunk/FreeRTOS/Source/tasks.o
 .text.vTaskDelete
                0x00000000       0x6c project_build//C/mios32/trunk/FreeRTOS/Source/tasks.o
 .text.uxTaskPriorityGet
                0x00000000       0x1c project_build//C/mios32/trunk/FreeRTOS/Source/tasks.o
 .text.vTaskPrioritySet
                0x00000000       0x94 project_build//C/mios32/trunk/FreeRTOS/Source/tasks.o
 .text.vTaskSuspend
                0x00000000       0x4c project_build//C/mios32/trunk/FreeRTOS/Source/tasks.o
 .text.xTaskIsTaskSuspended
                0x00000000       0x28 project_build//C/mios32/trunk/FreeRTOS/Source/tasks.o
 .text.vTaskResume
                0x00000000       0x60 project_build//C/mios32/trunk/FreeRTOS/Source/tasks.o
 .text.xTaskResumeFromISR
                0x00000000       0x6c project_build//C/mios32/trunk/FreeRTOS/Source/tasks.o
 .text.vTaskEndScheduler
                0x00000000       0x1c project_build//C/mios32/trunk/FreeRTOS/Source/tasks.o
 .text.uxTaskGetNumberOfTasks
                0x00000000        0xc project_build//C/mios32/trunk/FreeRTOS/Source/tasks.o
 .text.vTaskPlaceOnEventList
                0x00000000       0x5c project_build//C/mios32/trunk/FreeRTOS/Source/tasks.o
 .text.xTaskRemoveFromEventList
                0x00000000       0x64 project_build//C/mios32/trunk/FreeRTOS/Source/tasks.o
 .text.vTaskSetTimeOutState
                0x00000000       0x18 project_build//C/mios32/trunk/FreeRTOS/Source/tasks.o
 .text.xTaskCheckForTimeOut
                0x00000000       0x5c project_build//C/mios32/trunk/FreeRTOS/Source/tasks.o
 .text.vTaskMissedYield
                0x00000000        0xc project_build//C/mios32/trunk/FreeRTOS/Source/tasks.o
 .text.xTaskGetCurrentTaskHandle
                0x00000000        0xc project_build//C/mios32/trunk/FreeRTOS/Source/tasks.o
 .text.xTaskGetSchedulerState
                0x00000000       0x1c project_build//C/mios32/trunk/FreeRTOS/Source/tasks.o
 .text.vTaskPriorityInherit
                0x00000000       0x64 project_build//C/mios32/trunk/FreeRTOS/Source/tasks.o
 .text.vTaskPriorityDisinherit
                0x00000000       0x44 project_build//C/mios32/trunk/FreeRTOS/Source/tasks.o
 .text          0x00000000        0x0 project_build//C/mios32/trunk/FreeRTOS/Source/list.o
 .data          0x00000000        0x0 project_build//C/mios32/trunk/FreeRTOS/Source/list.o
 .bss           0x00000000        0x0 project_build//C/mios32/trunk/FreeRTOS/Source/list.o
 .text          0x00000000        0x0 project_build//C/mios32/trunk/FreeRTOS/Source/queue.o
 .data          0x00000000        0x0 project_build//C/mios32/trunk/FreeRTOS/Source/queue.o
 .bss           0x00000000        0x0 project_build//C/mios32/trunk/FreeRTOS/Source/queue.o
 .text.prvUnlockQueue
                0x00000000       0x66 project_build//C/mios32/trunk/FreeRTOS/Source/queue.o
 .text.prvCopyDataToQueue
                0x00000000       0x58 project_build//C/mios32/trunk/FreeRTOS/Source/queue.o
 .text.xQueueCreate
                0x00000000       0x64 project_build//C/mios32/trunk/FreeRTOS/Source/queue.o
 .text.xQueueGenericSend
                0x00000000       0xe8 project_build//C/mios32/trunk/FreeRTOS/Source/queue.o
 .text.xQueueGiveMutexRecursive
                0x00000000       0x2a project_build//C/mios32/trunk/FreeRTOS/Source/queue.o
 .text.xQueueCreateMutex
                0x00000000       0x46 project_build//C/mios32/trunk/FreeRTOS/Source/queue.o
 .text.xQueueGenericSendFromISR
                0x00000000       0x52 project_build//C/mios32/trunk/FreeRTOS/Source/queue.o
 .text.xQueueGenericReceive
                0x00000000      0x128 project_build//C/mios32/trunk/FreeRTOS/Source/queue.o
 .text.xQueueTakeMutexRecursive
                0x00000000       0x32 project_build//C/mios32/trunk/FreeRTOS/Source/queue.o
 .text.xQueueReceiveFromISR
                0x00000000       0x6c project_build//C/mios32/trunk/FreeRTOS/Source/queue.o
 .text.uxQueueMessagesWaiting
                0x00000000       0x12 project_build//C/mios32/trunk/FreeRTOS/Source/queue.o
 .text.uxQueueMessagesWaitingFromISR
                0x00000000        0x4 project_build//C/mios32/trunk/FreeRTOS/Source/queue.o
 .text.vQueueDelete
                0x00000000       0x34 project_build//C/mios32/trunk/FreeRTOS/Source/queue.o
 .text.xQueueIsQueueEmptyFromISR
                0x00000000        0xc project_build//C/mios32/trunk/FreeRTOS/Source/queue.o
 .text.xQueueIsQueueFullFromISR
                0x00000000        0xe project_build//C/mios32/trunk/FreeRTOS/Source/queue.o
 .text.vQueueAddToRegistry
                0x00000000       0x28 project_build//C/mios32/trunk/FreeRTOS/Source/queue.o
 COMMON         0x00000000       0x50 project_build//C/mios32/trunk/FreeRTOS/Source/queue.o
 .text          0x00000000        0x0 project_build//C/mios32/trunk/FreeRTOS/Source/portable/GCC/ARM_CM3/port.o
 .data          0x00000000        0x0 project_build//C/mios32/trunk/FreeRTOS/Source/portable/GCC/ARM_CM3/port.o
 .bss           0x00000000        0x0 project_build//C/mios32/trunk/FreeRTOS/Source/portable/GCC/ARM_CM3/port.o
 .text.vPortEndScheduler
                0x00000000        0x2 project_build//C/mios32/trunk/FreeRTOS/Source/portable/GCC/ARM_CM3/port.o
 .rodata.ulKernelPriority
                0x00000000        0x4 project_build//C/mios32/trunk/FreeRTOS/Source/portable/GCC/ARM_CM3/port.o
 .text          0x00000000        0x0 project_build//C/mios32/trunk/FreeRTOS/Source/portable/MemMang/umm_malloc.o
 .data          0x00000000        0x0 project_build//C/mios32/trunk/FreeRTOS/Source/portable/MemMang/umm_malloc.o
 .bss           0x00000000        0x0 project_build//C/mios32/trunk/FreeRTOS/Source/portable/MemMang/umm_malloc.o
 .text.umm_info
                0x00000000      0x174 project_build//C/mios32/trunk/FreeRTOS/Source/portable/MemMang/umm_malloc.o
 .text.realloc  0x00000000      0x11c project_build//C/mios32/trunk/FreeRTOS/Source/portable/MemMang/umm_malloc.o
 .rodata.umm_numblocks
                0x00000000        0x2 project_build//C/mios32/trunk/FreeRTOS/Source/portable/MemMang/umm_malloc.o
 .text          0x00000000        0x0 project_build//C/mios32/trunk/programming_models/traditional/startup_stm32f10x_hd.o
 .data          0x00000000        0x0 project_build//C/mios32/trunk/programming_models/traditional/startup_stm32f10x_hd.o
 .bss           0x00000000        0x0 project_build//C/mios32/trunk/programming_models/traditional/startup_stm32f10x_hd.o
 .text          0x00000000        0x0 project_build//C/mios32/trunk/mios32/common/mios32_srio.o
 .data          0x00000000        0x0 project_build//C/mios32/trunk/mios32/common/mios32_srio.o
 .bss           0x00000000        0x0 project_build//C/mios32/trunk/mios32/common/mios32_srio.o
 .text.MIOS32_SRIO_DMA_Callback
                0x00000000       0xa0 project_build//C/mios32/trunk/mios32/common/mios32_srio.o
 .text.MIOS32_SRIO_DebounceGet
                0x00000000        0xc project_build//C/mios32/trunk/mios32/common/mios32_srio.o
 .text.MIOS32_SRIO_DebounceSet
                0x00000000       0x1c project_build//C/mios32/trunk/mios32/common/mios32_srio.o
 .text.MIOS32_SRIO_ScanStart
                0x00000000       0x58 project_build//C/mios32/trunk/mios32/common/mios32_srio.o
 .text          0x00000000        0x0 project_build//C/mios32/trunk/mios32/common/mios32_din.o
 .data          0x00000000        0x0 project_build//C/mios32/trunk/mios32/common/mios32_din.o
 .bss           0x00000000        0x0 project_build//C/mios32/trunk/mios32/common/mios32_din.o
 .text.MIOS32_DIN_PinGet
                0x00000000       0x24 project_build//C/mios32/trunk/mios32/common/mios32_din.o
 .text.MIOS32_DIN_SRGet
                0x00000000       0x14 project_build//C/mios32/trunk/mios32/common/mios32_din.o
 .text          0x00000000        0x0 project_build//C/mios32/trunk/mios32/common/mios32_dout.o
 .data          0x00000000        0x0 project_build//C/mios32/trunk/mios32/common/mios32_dout.o
 .bss           0x00000000        0x0 project_build//C/mios32/trunk/mios32/common/mios32_dout.o
 .text.MIOS32_DOUT_PinGet
                0x00000000       0x28 project_build//C/mios32/trunk/mios32/common/mios32_dout.o
 .text.MIOS32_DOUT_PinSet
                0x00000000       0x58 project_build//C/mios32/trunk/mios32/common/mios32_dout.o
 .text.MIOS32_DOUT_SRGet
                0x00000000       0x20 project_build//C/mios32/trunk/mios32/common/mios32_dout.o
 .text.MIOS32_DOUT_SRSet
                0x00000000       0x24 project_build//C/mios32/trunk/mios32/common/mios32_dout.o
 .rodata.mios32_dout_reverse_tab
                0x00000000      0x100 project_build//C/mios32/trunk/mios32/common/mios32_dout.o
 .text          0x00000000        0x0 project_build//C/mios32/trunk/mios32/common/mios32_enc.o
 .data          0x00000000        0x0 project_build//C/mios32/trunk/mios32/common/mios32_enc.o
 .bss           0x00000000        0x0 project_build//C/mios32/trunk/mios32/common/mios32_enc.o
 .text.MIOS32_ENC_ConfigSet
                0x00000000       0x20 project_build//C/mios32/trunk/mios32/common/mios32_enc.o
 .text.MIOS32_ENC_ConfigGet
                0x00000000       0x24 project_build//C/mios32/trunk/mios32/common/mios32_enc.o
 .text.MIOS32_ENC_StateSet
                0x00000000       0x34 project_build//C/mios32/trunk/mios32/common/mios32_enc.o
 .text.MIOS32_ENC_StateGet
                0x00000000       0x18 project_build//C/mios32/trunk/mios32/common/mios32_enc.o
 .text.MIOS32_ENC_UpdateStates
                0x00000000      0x27c project_build//C/mios32/trunk/mios32/common/mios32_enc.o
 .text          0x00000000        0x0 project_build//C/mios32/trunk/mios32/common/mios32_lcd.o
 .data          0x00000000        0x0 project_build//C/mios32/trunk/mios32/common/mios32_lcd.o
 .bss           0x00000000        0x0 project_build//C/mios32/trunk/mios32/common/mios32_lcd.o
 .text.MIOS32_LCD_DeviceGet
                0x00000000        0xc project_build//C/mios32/trunk/mios32/common/mios32_lcd.o
 .text.MIOS32_LCD_SpecialCharsInit
                0x00000000       0x20 project_build//C/mios32/trunk/mios32/common/mios32_lcd.o
 .text.MIOS32_LCD_FontInit
                0x00000000       0x24 project_build//C/mios32/trunk/mios32/common/mios32_lcd.o
 .text.MIOS32_LCD_Data
                0x00000000        0x8 project_build//C/mios32/trunk/mios32/common/mios32_lcd.o
 .text.MIOS32_LCD_Cmd
                0x00000000        0x8 project_build//C/mios32/trunk/mios32/common/mios32_lcd.o
 .text.MIOS32_LCD_SpecialCharInit
                0x00000000        0x8 project_build//C/mios32/trunk/mios32/common/mios32_lcd.o
 .text.MIOS32_LCD_BitmapInit
                0x00000000       0x18 project_build//C/mios32/trunk/mios32/common/mios32_lcd.o
 .text.MIOS32_LCD_BitmapPixelSet
                0x00000000       0x20 project_build//C/mios32/trunk/mios32/common/mios32_lcd.o
 .text.MIOS32_LCD_BitmapPrint
                0x00000000       0x14 project_build//C/mios32/trunk/mios32/common/mios32_lcd.o
 .text          0x00000000        0x0 project_build//C/mios32/trunk/mios32/common/mios32_midi.o
 .data          0x00000000        0x0 project_build//C/mios32/trunk/mios32/common/mios32_midi.o
 .bss           0x00000000        0x0 project_build//C/mios32/trunk/mios32/common/mios32_midi.o
 .text.MIOS32_MIDI_CheckAvailable
                0x00000000       0x48 project_build//C/mios32/trunk/mios32/common/mios32_midi.o
 .text.MIOS32_MIDI_RS_OptimisationSet
                0x00000000       0x44 project_build//C/mios32/trunk/mios32/common/mios32_midi.o
 .text.MIOS32_MIDI_RS_OptimisationGet
                0x00000000       0x44 project_build//C/mios32/trunk/mios32/common/mios32_midi.o
 .text.MIOS32_MIDI_RS_Reset
                0x00000000       0x44 project_build//C/mios32/trunk/mios32/common/mios32_midi.o
 .text.MIOS32_MIDI_SendPackage_NonBlocking
                0x00000000       0x78 project_build//C/mios32/trunk/mios32/common/mios32_midi.o
 .text.MIOS32_MIDI_SendNoteOff
                0x00000000        0xc project_build//C/mios32/trunk/mios32/common/mios32_midi.o
 .text.MIOS32_MIDI_SendPolyPressure
                0x00000000        0xc project_build//C/mios32/trunk/mios32/common/mios32_midi.o
 .text.MIOS32_MIDI_SendProgramChange
                0x00000000        0xe project_build//C/mios32/trunk/mios32/common/mios32_midi.o
 .text.MIOS32_MIDI_SendAftertouch
                0x00000000        0xe project_build//C/mios32/trunk/mios32/common/mios32_midi.o
 .text.MIOS32_MIDI_SendPitchBend
                0x00000000       0x16 project_build//C/mios32/trunk/mios32/common/mios32_midi.o
 .text.MIOS32_MIDI_SendSpecialEvent
                0x00000000       0x22 project_build//C/mios32/trunk/mios32/common/mios32_midi.o
 .text.MIOS32_MIDI_SendMTC
                0x00000000       0x12 project_build//C/mios32/trunk/mios32/common/mios32_midi.o
 .text.MIOS32_MIDI_SendSongPosition
                0x00000000       0x16 project_build//C/mios32/trunk/mios32/common/mios32_midi.o
 .text.MIOS32_MIDI_SendSongSelect
                0x00000000       0x12 project_build//C/mios32/trunk/mios32/common/mios32_midi.o
 .text.MIOS32_MIDI_SendTuneRequest
                0x00000000       0x10 project_build//C/mios32/trunk/mios32/common/mios32_midi.o
 .text.MIOS32_MIDI_SendClock
                0x00000000       0x10 project_build//C/mios32/trunk/mios32/common/mios32_midi.o
 .text.MIOS32_MIDI_SendTick
                0x00000000       0x10 project_build//C/mios32/trunk/mios32/common/mios32_midi.o
 .text.MIOS32_MIDI_SendStart
                0x00000000       0x10 project_build//C/mios32/trunk/mios32/common/mios32_midi.o
 .text.MIOS32_MIDI_SendContinue
                0x00000000       0x10 project_build//C/mios32/trunk/mios32/common/mios32_midi.o
 .text.MIOS32_MIDI_SendStop
                0x00000000       0x10 project_build//C/mios32/trunk/mios32/common/mios32_midi.o
 .text.MIOS32_MIDI_SendActiveSense
                0x00000000       0x10 project_build//C/mios32/trunk/mios32/common/mios32_midi.o
 .text.MIOS32_MIDI_SendReset
                0x00000000       0x10 project_build//C/mios32/trunk/mios32/common/mios32_midi.o
 .text.MIOS32_MIDI_SendDebugHexDump
                0x00000000      0x11c project_build//C/mios32/trunk/mios32/common/mios32_midi.o
 .text.MIOS32_MIDI_DirectTxCallback_Init
                0x00000000        0xc project_build//C/mios32/trunk/mios32/common/mios32_midi.o
 .text.MIOS32_MIDI_DirectRxCallback_Init
                0x00000000        0xc project_build//C/mios32/trunk/mios32/common/mios32_midi.o
 .text.MIOS32_MIDI_DefaultPortSet
                0x00000000       0x14 project_build//C/mios32/trunk/mios32/common/mios32_midi.o
 .text.MIOS32_MIDI_DefaultPortGet
                0x00000000        0xc project_build//C/mios32/trunk/mios32/common/mios32_midi.o
 .text.MIOS32_MIDI_DebugPortSet
                0x00000000       0x14 project_build//C/mios32/trunk/mios32/common/mios32_midi.o
 .text.MIOS32_MIDI_DebugPortGet
                0x00000000        0xc project_build//C/mios32/trunk/mios32/common/mios32_midi.o
 .text.MIOS32_MIDI_DeviceIDSet
                0x00000000       0x10 project_build//C/mios32/trunk/mios32/common/mios32_midi.o
 .text.MIOS32_MIDI_DeviceIDGet
                0x00000000        0xc project_build//C/mios32/trunk/mios32/common/mios32_midi.o
 .text.MIOS32_MIDI_SysExCallback_Init
                0x00000000        0xc project_build//C/mios32/trunk/mios32/common/mios32_midi.o
 .text.MIOS32_MIDI_DebugCommandCallback_Init
                0x00000000        0xc project_build//C/mios32/trunk/mios32/common/mios32_midi.o
 .text.MIOS32_MIDI_TimeOutCallback_Init
                0x00000000        0xc project_build//C/mios32/trunk/mios32/common/mios32_midi.o
 .text          0x00000000        0x0 project_build//C/mios32/trunk/mios32/common/mios32_osc.o
 .data          0x00000000        0x0 project_build//C/mios32/trunk/mios32/common/mios32_osc.o
 .bss           0x00000000        0x0 project_build//C/mios32/trunk/mios32/common/mios32_osc.o
 .text.MIOS32_OSC_SearchPath
                0x00000000       0xe2 project_build//C/mios32/trunk/mios32/common/mios32_osc.o
 .text.my_strnlen
                0x00000000       0x12 project_build//C/mios32/trunk/mios32/common/mios32_osc.o
 .text.MIOS32_OSC_GetWord
                0x00000000       0x16 project_build//C/mios32/trunk/mios32/common/mios32_osc.o
 .text.MIOS32_OSC_SearchElement
                0x00000000      0x15a project_build//C/mios32/trunk/mios32/common/mios32_osc.o
 .text.MIOS32_OSC_PutWord
                0x00000000       0x18 project_build//C/mios32/trunk/mios32/common/mios32_osc.o
 .text.MIOS32_OSC_GetTimetag
                0x00000000       0x1c project_build//C/mios32/trunk/mios32/common/mios32_osc.o
 .text.MIOS32_OSC_PutTimetag
                0x00000000       0x14 project_build//C/mios32/trunk/mios32/common/mios32_osc.o
 .text.MIOS32_OSC_GetInt
                0x00000000        0x8 project_build//C/mios32/trunk/mios32/common/mios32_osc.o
 .text.MIOS32_OSC_PutInt
                0x00000000        0x8 project_build//C/mios32/trunk/mios32/common/mios32_osc.o
 .text.MIOS32_OSC_GetFloat
                0x00000000        0x8 project_build//C/mios32/trunk/mios32/common/mios32_osc.o
 .text.MIOS32_OSC_PutFloat
                0x00000000        0x8 project_build//C/mios32/trunk/mios32/common/mios32_osc.o
 .text.MIOS32_OSC_GetString
                0x00000000        0x2 project_build//C/mios32/trunk/mios32/common/mios32_osc.o
 .text.MIOS32_OSC_PutString
                0x00000000       0x18 project_build//C/mios32/trunk/mios32/common/mios32_osc.o
 .text.MIOS32_OSC_GetBlobLength
                0x00000000        0x8 project_build//C/mios32/trunk/mios32/common/mios32_osc.o
 .text.MIOS32_OSC_GetBlobData
                0x00000000        0x4 project_build//C/mios32/trunk/mios32/common/mios32_osc.o
 .text.MIOS32_OSC_PutBlob
                0x00000000       0x32 project_build//C/mios32/trunk/mios32/common/mios32_osc.o
 .text.MIOS32_OSC_GetLongLong
                0x00000000       0x1a project_build//C/mios32/trunk/mios32/common/mios32_osc.o
 .text.MIOS32_OSC_PutLongLong
                0x00000000       0x12 project_build//C/mios32/trunk/mios32/common/mios32_osc.o
 .text.MIOS32_OSC_GetDouble
                0x00000000        0x8 project_build//C/mios32/trunk/mios32/common/mios32_osc.o
 .text.MIOS32_OSC_PutDouble
                0x00000000        0x8 project_build//C/mios32/trunk/mios32/common/mios32_osc.o
 .text.MIOS32_OSC_GetChar
                0x00000000        0x4 project_build//C/mios32/trunk/mios32/common/mios32_osc.o
 .text.MIOS32_OSC_PutChar
                0x00000000        0x8 project_build//C/mios32/trunk/mios32/common/mios32_osc.o
 .text.MIOS32_OSC_GetMIDI
                0x00000000       0x22 project_build//C/mios32/trunk/mios32/common/mios32_osc.o
 .text.MIOS32_OSC_PutMIDI
                0x00000000       0x1a project_build//C/mios32/trunk/mios32/common/mios32_osc.o
 .text.MIOS32_OSC_ParsePacket
                0x00000000       0x84 project_build//C/mios32/trunk/mios32/common/mios32_osc.o
 .text.MIOS32_OSC_SendDebugMessage
                0x00000000      0x250 project_build//C/mios32/trunk/mios32/common/mios32_osc.o
 .rodata.str1.1
                0x00000000      0x1df project_build//C/mios32/trunk/mios32/common/mios32_osc.o
 .text          0x00000000        0x0 project_build//C/mios32/trunk/mios32/common/mios32_com.o
 .data          0x00000000        0x0 project_build//C/mios32/trunk/mios32/common/mios32_com.o
 .bss           0x00000000        0x0 project_build//C/mios32/trunk/mios32/common/mios32_com.o
 .text.MIOS32_COM_CheckAvailable
                0x00000000        0x4 project_build//C/mios32/trunk/mios32/common/mios32_com.o
 .text.MIOS32_COM_SendBuffer_NonBlocking
                0x00000000       0x30 project_build//C/mios32/trunk/mios32/common/mios32_com.o
 .text.MIOS32_COM_SendChar_NonBlocking
                0x00000000       0x12 project_build//C/mios32/trunk/mios32/common/mios32_com.o
 .text.MIOS32_COM_SendString_NonBlocking
                0x00000000       0x18 project_build//C/mios32/trunk/mios32/common/mios32_com.o
 .text.MIOS32_COM_SendString
                0x00000000       0x18 project_build//C/mios32/trunk/mios32/common/mios32_com.o
 .text.MIOS32_COM_SendFormattedString_NonBlocking
                0x00000000       0x32 project_build//C/mios32/trunk/mios32/common/mios32_com.o
 .text.MIOS32_COM_SendFormattedString
                0x00000000       0x32 project_build//C/mios32/trunk/mios32/common/mios32_com.o
 .text.MIOS32_COM_ReceiveCallback_Init
                0x00000000        0xc project_build//C/mios32/trunk/mios32/common/mios32_com.o
 .text.MIOS32_COM_DefaultPortSet
                0x00000000       0x14 project_build//C/mios32/trunk/mios32/common/mios32_com.o
 .text.MIOS32_COM_DefaultPortGet
                0x00000000        0xc project_build//C/mios32/trunk/mios32/common/mios32_com.o
 .text.MIOS32_COM_DebugPortSet
                0x00000000       0x14 project_build//C/mios32/trunk/mios32/common/mios32_com.o
 .text.MIOS32_COM_DebugPortGet
                0x00000000        0xc project_build//C/mios32/trunk/mios32/common/mios32_com.o
 .text          0x00000000        0x0 project_build//C/mios32/trunk/mios32/common/mios32_uart_midi.o
 .data          0x00000000        0x0 project_build//C/mios32/trunk/mios32/common/mios32_uart_midi.o
 .bss           0x00000000        0x0 project_build//C/mios32/trunk/mios32/common/mios32_uart_midi.o
 .text.MIOS32_UART_MIDI_CheckAvailable
                0x00000000        0xa project_build//C/mios32/trunk/mios32/common/mios32_uart_midi.o
 .text.MIOS32_UART_MIDI_RS_OptimisationSet
                0x00000000       0x30 project_build//C/mios32/trunk/mios32/common/mios32_uart_midi.o
 .text.MIOS32_UART_MIDI_RS_OptimisationGet
                0x00000000       0x1c project_build//C/mios32/trunk/mios32/common/mios32_uart_midi.o
 .text          0x00000000        0x0 project_build//C/mios32/trunk/mios32/common/mios32_iic_midi.o
 .data          0x00000000        0x0 project_build//C/mios32/trunk/mios32/common/mios32_iic_midi.o
 .bss           0x00000000        0x0 project_build//C/mios32/trunk/mios32/common/mios32_iic_midi.o
 .text.MIOS32_IIC_MIDI_ScanInterfaces
                0x00000000        0x4 project_build//C/mios32/trunk/mios32/common/mios32_iic_midi.o
 .text.MIOS32_IIC_MIDI_CheckAvailable
                0x00000000        0x4 project_build//C/mios32/trunk/mios32/common/mios32_iic_midi.o
 .text.MIOS32_IIC_MIDI_RS_OptimisationSet
                0x00000000        0x6 project_build//C/mios32/trunk/mios32/common/mios32_iic_midi.o
 .text.MIOS32_IIC_MIDI_RS_OptimisationGet
                0x00000000        0x6 project_build//C/mios32/trunk/mios32/common/mios32_iic_midi.o
 .text.MIOS32_IIC_MIDI_RS_Reset
                0x00000000        0x6 project_build//C/mios32/trunk/mios32/common/mios32_iic_midi.o
 .text.MIOS32_IIC_MIDI_PackageSend_NonBlocking
                0x00000000        0x6 project_build//C/mios32/trunk/mios32/common/mios32_iic_midi.o
 .text.MIOS32_IIC_MIDI_PackageReceive_NonBlocking
                0x00000000        0x6 project_build//C/mios32/trunk/mios32/common/mios32_iic_midi.o
 .text          0x00000000        0x0 project_build//C/mios32/trunk/mios32/common/mios32_iic_bs.o
 .data          0x00000000        0x0 project_build//C/mios32/trunk/mios32/common/mios32_iic_bs.o
 .bss           0x00000000        0x0 project_build//C/mios32/trunk/mios32/common/mios32_iic_bs.o
 .text.MIOS32_IIC_BS_ScanBankSticks
                0x00000000        0x4 project_build//C/mios32/trunk/mios32/common/mios32_iic_bs.o
 .text.MIOS32_IIC_BS_CheckAvailable
                0x00000000        0x4 project_build//C/mios32/trunk/mios32/common/mios32_iic_bs.o
 .text.MIOS32_IIC_BS_Read
                0x00000000        0x6 project_build//C/mios32/trunk/mios32/common/mios32_iic_bs.o
 .text.MIOS32_IIC_BS_Write
                0x00000000        0x6 project_build//C/mios32/trunk/mios32/common/mios32_iic_bs.o
 .text.MIOS32_IIC_BS_CheckWriteFinished
                0x00000000        0x6 project_build//C/mios32/trunk/mios32/common/mios32_iic_bs.o
 .text          0x00000000        0x0 project_build//C/mios32/trunk/mios32/common/mios32_mf.o
 .data          0x00000000        0x0 project_build//C/mios32/trunk/mios32/common/mios32_mf.o
 .bss           0x00000000        0x0 project_build//C/mios32/trunk/mios32/common/mios32_mf.o
 .text.MIOS32_MF_FaderMove
                0x00000000        0x6 project_build//C/mios32/trunk/mios32/common/mios32_mf.o
 .text.MIOS32_MF_FaderDirectMove
                0x00000000        0x6 project_build//C/mios32/trunk/mios32/common/mios32_mf.o
 .text.MIOS32_MF_SuspendSet
                0x00000000        0x6 project_build//C/mios32/trunk/mios32/common/mios32_mf.o
 .text.MIOS32_MF_SuspendGet
                0x00000000        0x6 project_build//C/mios32/trunk/mios32/common/mios32_mf.o
 .text.MIOS32_MF_TouchDetectionReset
                0x00000000        0x6 project_build//C/mios32/trunk/mios32/common/mios32_mf.o
 .text.MIOS32_MF_ConfigSet
                0x00000000        0x6 project_build//C/mios32/trunk/mios32/common/mios32_mf.o
 .text.MIOS32_MF_ConfigGet
                0x00000000       0x18 project_build//C/mios32/trunk/mios32/common/mios32_mf.o
 .text.MIOS32_MF_Tick
                0x00000000        0x6 project_build//C/mios32/trunk/mios32/common/mios32_mf.o
 .text          0x00000000        0x0 project_build//C/mios32/trunk/mios32/common/mios32_sdcard.o
 .data          0x00000000        0x0 project_build//C/mios32/trunk/mios32/common/mios32_sdcard.o
 .bss           0x00000000        0x0 project_build//C/mios32/trunk/mios32/common/mios32_sdcard.o
 .text.MIOS32_SDCARD_Init
                0x00000000       0x20 project_build//C/mios32/trunk/mios32/common/mios32_sdcard.o
 .text.MIOS32_SDCARD_PowerOff
                0x00000000        0x4 project_build//C/mios32/trunk/mios32/common/mios32_sdcard.o
 .text.MIOS32_SDCARD_SendSDCCmd
                0x00000000      0x10e project_build//C/mios32/trunk/mios32/common/mios32_sdcard.o
 .text.MIOS32_SDCARD_PowerOn
                0x00000000      0x10c project_build//C/mios32/trunk/mios32/common/mios32_sdcard.o
 .text.MIOS32_SDCARD_CheckAvailable
                0x00000000       0x90 project_build//C/mios32/trunk/mios32/common/mios32_sdcard.o
 .text.MIOS32_SDCARD_SectorRead
                0x00000000       0x98 project_build//C/mios32/trunk/mios32/common/mios32_sdcard.o
 .text.MIOS32_SDCARD_SectorWrite
                0x00000000       0xb4 project_build//C/mios32/trunk/mios32/common/mios32_sdcard.o
 .text.MIOS32_SDCARD_CIDRead
                0x00000000      0x104 project_build//C/mios32/trunk/mios32/common/mios32_sdcard.o
 .text.MIOS32_SDCARD_CSDRead
                0x00000000      0x1de project_build//C/mios32/trunk/mios32/common/mios32_sdcard.o
 .bss.CardType  0x00000000        0x1 project_build//C/mios32/trunk/mios32/common/mios32_sdcard.o
 .text          0x00000000        0x0 project_build//C/mios32/trunk/mios32/common/mios32_enc28j60.o
 .data          0x00000000        0x0 project_build//C/mios32/trunk/mios32/common/mios32_enc28j60.o
 .bss           0x00000000        0x0 project_build//C/mios32/trunk/mios32/common/mios32_enc28j60.o
 .text.MIOS32_ENC28J60_PowerOff
                0x00000000        0x4 project_build//C/mios32/trunk/mios32/common/mios32_enc28j60.o
 .text.MIOS32_ENC28J60_RevIDGet
                0x00000000        0xc project_build//C/mios32/trunk/mios32/common/mios32_enc28j60.o
 .text.MIOS32_ENC28J60_MAC_AddrGet
                0x00000000        0x8 project_build//C/mios32/trunk/mios32/common/mios32_enc28j60.o
 .text.MIOS32_ENC28J60_ReadETHReg
                0x00000000       0x34 project_build//C/mios32/trunk/mios32/common/mios32_enc28j60.o
 .text.MIOS32_ENC28J60_ReadMACReg
                0x00000000       0x3c project_build//C/mios32/trunk/mios32/common/mios32_enc28j60.o
 .text.MIOS32_ENC28J60_WriteReg
                0x00000000       0x36 project_build//C/mios32/trunk/mios32/common/mios32_enc28j60.o
 .text.MIOS32_ENC28J60_BFCReg
                0x00000000       0x36 project_build//C/mios32/trunk/mios32/common/mios32_enc28j60.o
 .text.MIOS32_ENC28J60_BFSReg
                0x00000000       0x36 project_build//C/mios32/trunk/mios32/common/mios32_enc28j60.o
 .text.MIOS32_ENC28J60_BankSel
                0x00000000       0x1a project_build//C/mios32/trunk/mios32/common/mios32_enc28j60.o
 .text.MIOS32_ENC28J60_WritePHYReg
                0x00000000       0x4e project_build//C/mios32/trunk/mios32/common/mios32_enc28j60.o
 .text.MIOS32_ENC28J60_ReadPHYReg
                0x00000000       0x8a project_build//C/mios32/trunk/mios32/common/mios32_enc28j60.o
 .text.MIOS32_ENC28J60_LinkAvailable
                0x00000000       0x14 project_build//C/mios32/trunk/mios32/common/mios32_enc28j60.o
 .text.MIOS32_ENC28J60_MACDiscardRx
                0x00000000       0x58 project_build//C/mios32/trunk/mios32/common/mios32_enc28j60.o
 .text.MIOS32_ENC28J60_MAC_AddrSet
                0x00000000       0xec project_build//C/mios32/trunk/mios32/common/mios32_enc28j60.o
 .text.MIOS32_ENC28J60_SendSystemReset
                0x00000000       0x32 project_build//C/mios32/trunk/mios32/common/mios32_enc28j60.o
 .text.MIOS32_ENC28J60_MACGet
                0x00000000       0x32 project_build//C/mios32/trunk/mios32/common/mios32_enc28j60.o
 .text.MIOS32_ENC28J60_MACGetArray
                0x00000000       0x3c project_build//C/mios32/trunk/mios32/common/mios32_enc28j60.o
 .text.MIOS32_ENC28J60_MACPut
                0x00000000       0x32 project_build//C/mios32/trunk/mios32/common/mios32_enc28j60.o
 .text.MIOS32_ENC28J60_PowerOn
                0x00000000      0x1cc project_build//C/mios32/trunk/mios32/common/mios32_enc28j60.o
 .text.MIOS32_ENC28J60_PackageReceive
                0x00000000      0x10c project_build//C/mios32/trunk/mios32/common/mios32_enc28j60.o
 .text.MIOS32_ENC28J60_CheckAvailable
                0x00000000       0x50 project_build//C/mios32/trunk/mios32/common/mios32_enc28j60.o
 .text.MIOS32_ENC28J60_Init
                0x00000000       0x28 project_build//C/mios32/trunk/mios32/common/mios32_enc28j60.o
 .text.MIOS32_ENC28J60_MACPutArray
                0x00000000       0x3c project_build//C/mios32/trunk/mios32/common/mios32_enc28j60.o
 .text.MIOS32_ENC28J60_PackageSend
                0x00000000       0xf8 project_build//C/mios32/trunk/mios32/common/mios32_enc28j60.o
 .bss.WasDiscarded
                0x00000000        0x1 project_build//C/mios32/trunk/mios32/common/mios32_enc28j60.o
 .bss.rev_id    0x00000000        0x1 project_build//C/mios32/trunk/mios32/common/mios32_enc28j60.o
 .rodata.str1.1
                0x00000000       0x61 project_build//C/mios32/trunk/mios32/common/mios32_enc28j60.o
 .bss.mac_addr  0x00000000        0x8 project_build//C/mios32/trunk/mios32/common/mios32_enc28j60.o
 .bss.NextPacketLocation
                0x00000000        0x2 project_build//C/mios32/trunk/mios32/common/mios32_enc28j60.o
 .text          0x00000000        0x0 project_build//C/mios32/trunk/mios32/STM32F10x/mios32_bsl.o
 .data          0x00000000        0x0 project_build//C/mios32/trunk/mios32/STM32F10x/mios32_bsl.o
 .bss           0x00000000        0x0 project_build//C/mios32/trunk/mios32/STM32F10x/mios32_bsl.o
 .text          0x00000000        0x0 project_build//C/mios32/trunk/mios32/STM32F10x/mios32_sys.o
 .data          0x00000000        0x0 project_build//C/mios32/trunk/mios32/STM32F10x/mios32_sys.o
 .bss           0x00000000        0x0 project_build//C/mios32/trunk/mios32/STM32F10x/mios32_sys.o
 .text.MIOS32_SYS_DMA_CallbackSet
                0x00000000        0x6 project_build//C/mios32/trunk/mios32/STM32F10x/mios32_sys.o
 .text          0x00000000        0x0 project_build//C/mios32/trunk/mios32/STM32F10x/mios32_irq.o
 .data          0x00000000        0x0 project_build//C/mios32/trunk/mios32/STM32F10x/mios32_irq.o
 .bss           0x00000000        0x0 project_build//C/mios32/trunk/mios32/STM32F10x/mios32_irq.o
 .text.MIOS32_IRQ_DeInstall
                0x00000000       0x20 project_build//C/mios32/trunk/mios32/STM32F10x/mios32_irq.o
 .text          0x00000000        0x0 project_build//C/mios32/trunk/mios32/STM32F10x/mios32_spi.o
 .data          0x00000000        0x0 project_build//C/mios32/trunk/mios32/STM32F10x/mios32_spi.o
 .bss           0x00000000        0x0 project_build//C/mios32/trunk/mios32/STM32F10x/mios32_spi.o
 .text.MIOS32_SPI_TransferBlock
                0x00000000      0x120 project_build//C/mios32/trunk/mios32/STM32F10x/mios32_spi.o
 .bss.tx_dummy_byte
                0x00000000        0x1 project_build//C/mios32/trunk/mios32/STM32F10x/mios32_spi.o
 .bss.rx_dummy_byte
                0x00000000        0x1 project_build//C/mios32/trunk/mios32/STM32F10x/mios32_spi.o
 .text          0x00000000        0x0 project_build//C/mios32/trunk/mios32/STM32F10x/mios32_i2s.o
 .data          0x00000000        0x0 project_build//C/mios32/trunk/mios32/STM32F10x/mios32_i2s.o
 .bss           0x00000000        0x0 project_build//C/mios32/trunk/mios32/STM32F10x/mios32_i2s.o
 .text          0x00000000        0x0 project_build//C/mios32/trunk/mios32/STM32F10x/mios32_board.o
 .data          0x00000000        0x0 project_build//C/mios32/trunk/mios32/STM32F10x/mios32_board.o
 .bss           0x00000000        0x0 project_build//C/mios32/trunk/mios32/STM32F10x/mios32_board.o
 .text.MIOS32_BOARD_J5_Set
                0x00000000       0x60 project_build//C/mios32/trunk/mios32/STM32F10x/mios32_board.o
 .text.MIOS32_BOARD_J5_PinSet
                0x00000000       0x48 project_build//C/mios32/trunk/mios32/STM32F10x/mios32_board.o
 .text.MIOS32_BOARD_J5_Get
                0x00000000       0x44 project_build//C/mios32/trunk/mios32/STM32F10x/mios32_board.o
 .text.MIOS32_BOARD_J10_PinInit
                0x00000000        0x6 project_build//C/mios32/trunk/mios32/STM32F10x/mios32_board.o
 .text.MIOS32_BOARD_J10_Set
                0x00000000        0x6 project_build//C/mios32/trunk/mios32/STM32F10x/mios32_board.o
 .text.MIOS32_BOARD_J10_PinSet
                0x00000000        0x6 project_build//C/mios32/trunk/mios32/STM32F10x/mios32_board.o
 .text.MIOS32_BOARD_J10_Get
                0x00000000        0x6 project_build//C/mios32/trunk/mios32/STM32F10x/mios32_board.o
 .text.MIOS32_BOARD_J10_PinGet
                0x00000000        0x6 project_build//C/mios32/trunk/mios32/STM32F10x/mios32_board.o
 .text.MIOS32_BOARD_J15_SerDataShift
                0x00000000       0xbc project_build//C/mios32/trunk/mios32/STM32F10x/mios32_board.o
 .text.MIOS32_BOARD_DAC_PinInit
                0x00000000       0x84 project_build//C/mios32/trunk/mios32/STM32F10x/mios32_board.o
 .text.MIOS32_BOARD_DAC_PinSet
                0x00000000       0x36 project_build//C/mios32/trunk/mios32/STM32F10x/mios32_board.o
 .text          0x00000000        0x0 project_build//C/mios32/trunk/mios32/STM32F10x/mios32_timer.o
 .data          0x00000000        0x0 project_build//C/mios32/trunk/mios32/STM32F10x/mios32_timer.o
 .bss           0x00000000        0x0 project_build//C/mios32/trunk/mios32/STM32F10x/mios32_timer.o
 .text.MIOS32_TIMER_Init
                0x00000000       0xb8 project_build//C/mios32/trunk/mios32/STM32F10x/mios32_timer.o
 .text.MIOS32_TIMER_ReInit
                0x00000000       0x44 project_build//C/mios32/trunk/mios32/STM32F10x/mios32_timer.o
 .text.MIOS32_TIMER_DeInit
                0x00000000       0x20 project_build//C/mios32/trunk/mios32/STM32F10x/mios32_timer.o
 .rodata.timer_base
                0x00000000        0xc project_build//C/mios32/trunk/mios32/STM32F10x/mios32_timer.o
 .rodata.timer_irq_chn
                0x00000000        0xc project_build//C/mios32/trunk/mios32/STM32F10x/mios32_timer.o
 .rodata.rcc    0x00000000        0xc project_build//C/mios32/trunk/mios32/STM32F10x/mios32_timer.o
 .text          0x00000000        0x0 project_build//C/mios32/trunk/mios32/STM32F10x/mios32_stopwatch.o
 .data          0x00000000        0x0 project_build//C/mios32/trunk/mios32/STM32F10x/mios32_stopwatch.o
 .bss           0x00000000        0x0 project_build//C/mios32/trunk/mios32/STM32F10x/mios32_stopwatch.o
 .text.MIOS32_STOPWATCH_Init
                0x00000000       0x50 project_build//C/mios32/trunk/mios32/STM32F10x/mios32_stopwatch.o
 .text.MIOS32_STOPWATCH_Reset
                0x00000000       0x14 project_build//C/mios32/trunk/mios32/STM32F10x/mios32_stopwatch.o
 .text.MIOS32_STOPWATCH_ValueGet
                0x00000000       0x20 project_build//C/mios32/trunk/mios32/STM32F10x/mios32_stopwatch.o
 .text          0x00000000        0x0 project_build//C/mios32/trunk/mios32/STM32F10x/mios32_delay.o
 .data          0x00000000        0x0 project_build//C/mios32/trunk/mios32/STM32F10x/mios32_delay.o
 .bss           0x00000000        0x0 project_build//C/mios32/trunk/mios32/STM32F10x/mios32_delay.o
 .text          0x00000000        0x0 project_build//C/mios32/trunk/mios32/STM32F10x/mios32_ain.o
 .data          0x00000000        0x0 project_build//C/mios32/trunk/mios32/STM32F10x/mios32_ain.o
 .bss           0x00000000        0x0 project_build//C/mios32/trunk/mios32/STM32F10x/mios32_ain.o
 .text.MIOS32_AIN_ServicePrepareCallback_Init
                0x00000000        0xc project_build//C/mios32/trunk/mios32/STM32F10x/mios32_ain.o
 .text.MIOS32_AIN_PinGet
                0x00000000       0x14 project_build//C/mios32/trunk/mios32/STM32F10x/mios32_ain.o
 .text          0x00000000        0x0 project_build//C/mios32/trunk/mios32/STM32F10x/mios32_usb.o
 .data          0x00000000        0x0 project_build//C/mios32/trunk/mios32/STM32F10x/mios32_usb.o
 .bss           0x00000000        0x0 project_build//C/mios32/trunk/mios32/STM32F10x/mios32_usb.o
 .text          0x00000000        0x0 project_build//C/mios32/trunk/mios32/STM32F10x/mios32_usb_midi.o
 .data          0x00000000        0x0 project_build//C/mios32/trunk/mios32/STM32F10x/mios32_usb_midi.o
 .bss           0x00000000        0x0 project_build//C/mios32/trunk/mios32/STM32F10x/mios32_usb_midi.o
 .text.MIOS32_USB_MIDI_CheckAvailable
                0x00000000       0x10 project_build//C/mios32/trunk/mios32/STM32F10x/mios32_usb_midi.o
 .text          0x00000000        0x0 project_build//C/mios32/trunk/mios32/STM32F10x/mios32_usb_com.o
 .data          0x00000000        0x0 project_build//C/mios32/trunk/mios32/STM32F10x/mios32_usb_com.o
 .bss           0x00000000        0x0 project_build//C/mios32/trunk/mios32/STM32F10x/mios32_usb_com.o
 .text          0x00000000        0x0 project_build//C/mios32/trunk/mios32/STM32F10x/mios32_uart.o
 .data          0x00000000        0x0 project_build//C/mios32/trunk/mios32/STM32F10x/mios32_uart.o
 .bss           0x00000000        0x0 project_build//C/mios32/trunk/mios32/STM32F10x/mios32_uart.o
 .text.MIOS32_UART_BaudrateGet
                0x00000000       0x14 project_build//C/mios32/trunk/mios32/STM32F10x/mios32_uart.o
 .text.MIOS32_UART_RxBufferFree
                0x00000000       0x14 project_build//C/mios32/trunk/mios32/STM32F10x/mios32_uart.o
 .text.MIOS32_UART_RxBufferUsed
                0x00000000       0x10 project_build//C/mios32/trunk/mios32/STM32F10x/mios32_uart.o
 .text.MIOS32_UART_RxBufferPeek
                0x00000000       0x3c project_build//C/mios32/trunk/mios32/STM32F10x/mios32_uart.o
 .text.MIOS32_UART_TxBufferFree
                0x00000000       0x14 project_build//C/mios32/trunk/mios32/STM32F10x/mios32_uart.o
 .text.MIOS32_UART_TxBufferUsed
                0x00000000       0x10 project_build//C/mios32/trunk/mios32/STM32F10x/mios32_uart.o
 .text.MIOS32_UART_TxBufferPut_NonBlocking
                0x00000000       0x12 project_build//C/mios32/trunk/mios32/STM32F10x/mios32_uart.o
 .text.MIOS32_UART_TxBufferPut
                0x00000000       0x1c project_build//C/mios32/trunk/mios32/STM32F10x/mios32_uart.o
 .text          0x00000000        0x0 project_build//C/mios32/trunk/mios32/STM32F10x/mios32_iic.o
 .data          0x00000000        0x0 project_build//C/mios32/trunk/mios32/STM32F10x/mios32_iic.o
 .bss           0x00000000        0x0 project_build//C/mios32/trunk/mios32/STM32F10x/mios32_iic.o
 .text.MIOS32_IIC_InitPeripheral
                0x00000000       0x68 project_build//C/mios32/trunk/mios32/STM32F10x/mios32_iic.o
 .text.MIOS32_IIC_Init
                0x00000000       0x68 project_build//C/mios32/trunk/mios32/STM32F10x/mios32_iic.o
 .text.MIOS32_IIC_TransferBegin
                0x00000000       0x4c project_build//C/mios32/trunk/mios32/STM32F10x/mios32_iic.o
 .text.MIOS32_IIC_TransferFinished
                0x00000000       0x14 project_build//C/mios32/trunk/mios32/STM32F10x/mios32_iic.o
 .text.MIOS32_IIC_LastErrorGet
                0x00000000       0x14 project_build//C/mios32/trunk/mios32/STM32F10x/mios32_iic.o
 .text.MIOS32_IIC_TransferCheck
                0x00000000       0x2c project_build//C/mios32/trunk/mios32/STM32F10x/mios32_iic.o
 .text.MIOS32_IIC_TransferWait
                0x00000000       0x6c project_build//C/mios32/trunk/mios32/STM32F10x/mios32_iic.o
 .text.MIOS32_IIC_Transfer
                0x00000000       0xdc project_build//C/mios32/trunk/mios32/STM32F10x/mios32_iic.o
 .text          0x00000000        0x0 project_build//C/mios32/trunk/mios32/common/printf-stdarg.o
 .data          0x00000000        0x0 project_build//C/mios32/trunk/mios32/common/printf-stdarg.o
 .bss           0x00000000        0x0 project_build//C/mios32/trunk/mios32/common/printf-stdarg.o
 .text.printf   0x00000000       0x1a project_build//C/mios32/trunk/mios32/common/printf-stdarg.o
 .text.vprintf  0x00000000       0x10 project_build//C/mios32/trunk/mios32/common/printf-stdarg.o
 .text.snprintf
                0x00000000       0x1e project_build//C/mios32/trunk/mios32/common/printf-stdarg.o
 .text          0x00000000        0x0 project_build//C/mios32/trunk/drivers/STM32F10x/v3.3.0/STM32F10x_StdPeriph_Driver/src/stm32f10x_gpio.o
 .data          0x00000000        0x0 project_build//C/mios32/trunk/drivers/STM32F10x/v3.3.0/STM32F10x_StdPeriph_Driver/src/stm32f10x_gpio.o
 .bss           0x00000000        0x0 project_build//C/mios32/trunk/drivers/STM32F10x/v3.3.0/STM32F10x_StdPeriph_Driver/src/stm32f10x_gpio.o
 .text.GPIO_DeInit
                0x00000000       0xa8 project_build//C/mios32/trunk/drivers/STM32F10x/v3.3.0/STM32F10x_StdPeriph_Driver/src/stm32f10x_gpio.o
 .text.GPIO_AFIODeInit
                0x00000000       0x14 project_build//C/mios32/trunk/drivers/STM32F10x/v3.3.0/STM32F10x_StdPeriph_Driver/src/stm32f10x_gpio.o
 .text.GPIO_ReadInputDataBit
                0x00000000        0xc project_build//C/mios32/trunk/drivers/STM32F10x/v3.3.0/STM32F10x_StdPeriph_Driver/src/stm32f10x_gpio.o
 .text.GPIO_ReadInputData
                0x00000000        0x6 project_build//C/mios32/trunk/drivers/STM32F10x/v3.3.0/STM32F10x_StdPeriph_Driver/src/stm32f10x_gpio.o
 .text.GPIO_ReadOutputDataBit
                0x00000000        0xc project_build//C/mios32/trunk/drivers/STM32F10x/v3.3.0/STM32F10x_StdPeriph_Driver/src/stm32f10x_gpio.o
 .text.GPIO_ReadOutputData
                0x00000000        0x6 project_build//C/mios32/trunk/drivers/STM32F10x/v3.3.0/STM32F10x_StdPeriph_Driver/src/stm32f10x_gpio.o
 .text.GPIO_SetBits
                0x00000000        0x4 project_build//C/mios32/trunk/drivers/STM32F10x/v3.3.0/STM32F10x_StdPeriph_Driver/src/stm32f10x_gpio.o
 .text.GPIO_ResetBits
                0x00000000        0x4 project_build//C/mios32/trunk/drivers/STM32F10x/v3.3.0/STM32F10x_StdPeriph_Driver/src/stm32f10x_gpio.o
 .text.GPIO_WriteBit
                0x00000000        0xa project_build//C/mios32/trunk/drivers/STM32F10x/v3.3.0/STM32F10x_StdPeriph_Driver/src/stm32f10x_gpio.o
 .text.GPIO_Write
                0x00000000        0x4 project_build//C/mios32/trunk/drivers/STM32F10x/v3.3.0/STM32F10x_StdPeriph_Driver/src/stm32f10x_gpio.o
 .text.GPIO_PinLockConfig
                0x00000000       0x10 project_build//C/mios32/trunk/drivers/STM32F10x/v3.3.0/STM32F10x_StdPeriph_Driver/src/stm32f10x_gpio.o
 .text.GPIO_EventOutputConfig
                0x00000000       0x20 project_build//C/mios32/trunk/drivers/STM32F10x/v3.3.0/STM32F10x_StdPeriph_Driver/src/stm32f10x_gpio.o
 .text.GPIO_EventOutputCmd
                0x00000000        0xc project_build//C/mios32/trunk/drivers/STM32F10x/v3.3.0/STM32F10x_StdPeriph_Driver/src/stm32f10x_gpio.o
 .text.GPIO_EXTILineConfig
                0x00000000       0x38 project_build//C/mios32/trunk/drivers/STM32F10x/v3.3.0/STM32F10x_StdPeriph_Driver/src/stm32f10x_gpio.o
 .text.GPIO_ETH_MediaInterfaceConfig
                0x00000000        0xc project_build//C/mios32/trunk/drivers/STM32F10x/v3.3.0/STM32F10x_StdPeriph_Driver/src/stm32f10x_gpio.o
 .text          0x00000000        0x0 project_build//C/mios32/trunk/drivers/STM32F10x/v3.3.0/STM32F10x_StdPeriph_Driver/src/stm32f10x_flash.o
 .data          0x00000000        0x0 project_build//C/mios32/trunk/drivers/STM32F10x/v3.3.0/STM32F10x_StdPeriph_Driver/src/stm32f10x_flash.o
 .bss           0x00000000        0x0 project_build//C/mios32/trunk/drivers/STM32F10x/v3.3.0/STM32F10x_StdPeriph_Driver/src/stm32f10x_flash.o
 .text.FLASH_HalfCycleAccessCmd
                0x00000000       0x18 project_build//C/mios32/trunk/drivers/STM32F10x/v3.3.0/STM32F10x_StdPeriph_Driver/src/stm32f10x_flash.o
 .text.FLASH_Unlock
                0x00000000       0x18 project_build//C/mios32/trunk/drivers/STM32F10x/v3.3.0/STM32F10x_StdPeriph_Driver/src/stm32f10x_flash.o
 .text.FLASH_UnlockBank1
                0x00000000       0x18 project_build//C/mios32/trunk/drivers/STM32F10x/v3.3.0/STM32F10x_StdPeriph_Driver/src/stm32f10x_flash.o
 .text.FLASH_Lock
                0x00000000       0x10 project_build//C/mios32/trunk/drivers/STM32F10x/v3.3.0/STM32F10x_StdPeriph_Driver/src/stm32f10x_flash.o
 .text.FLASH_LockBank1
                0x00000000       0x10 project_build//C/mios32/trunk/drivers/STM32F10x/v3.3.0/STM32F10x_StdPeriph_Driver/src/stm32f10x_flash.o
 .text.FLASH_GetUserOptionByte
                0x00000000        0xc project_build//C/mios32/trunk/drivers/STM32F10x/v3.3.0/STM32F10x_StdPeriph_Driver/src/stm32f10x_flash.o
 .text.FLASH_GetWriteProtectionOptionByte
                0x00000000        0xc project_build//C/mios32/trunk/drivers/STM32F10x/v3.3.0/STM32F10x_StdPeriph_Driver/src/stm32f10x_flash.o
 .text.FLASH_GetReadOutProtectionStatus
                0x00000000       0x10 project_build//C/mios32/trunk/drivers/STM32F10x/v3.3.0/STM32F10x_StdPeriph_Driver/src/stm32f10x_flash.o
 .text.FLASH_GetPrefetchBufferStatus
                0x00000000       0x10 project_build//C/mios32/trunk/drivers/STM32F10x/v3.3.0/STM32F10x_StdPeriph_Driver/src/stm32f10x_flash.o
 .text.FLASH_ITConfig
                0x00000000       0x1c project_build//C/mios32/trunk/drivers/STM32F10x/v3.3.0/STM32F10x_StdPeriph_Driver/src/stm32f10x_flash.o
 .text.FLASH_GetFlagStatus
                0x00000000       0x20 project_build//C/mios32/trunk/drivers/STM32F10x/v3.3.0/STM32F10x_StdPeriph_Driver/src/stm32f10x_flash.o
 .text.FLASH_ClearFlag
                0x00000000        0xc project_build//C/mios32/trunk/drivers/STM32F10x/v3.3.0/STM32F10x_StdPeriph_Driver/src/stm32f10x_flash.o
 .text.FLASH_GetStatus
                0x00000000       0x2c project_build//C/mios32/trunk/drivers/STM32F10x/v3.3.0/STM32F10x_StdPeriph_Driver/src/stm32f10x_flash.o
 .text.FLASH_GetBank1Status
                0x00000000       0x2c project_build//C/mios32/trunk/drivers/STM32F10x/v3.3.0/STM32F10x_StdPeriph_Driver/src/stm32f10x_flash.o
 .text.FLASH_WaitForLastOperation
                0x00000000       0x2a project_build//C/mios32/trunk/drivers/STM32F10x/v3.3.0/STM32F10x_StdPeriph_Driver/src/stm32f10x_flash.o
 .text.FLASH_UserOptionByteConfig
                0x00000000       0x58 project_build//C/mios32/trunk/drivers/STM32F10x/v3.3.0/STM32F10x_StdPeriph_Driver/src/stm32f10x_flash.o
 .text.FLASH_ReadOutProtection
                0x00000000       0x94 project_build//C/mios32/trunk/drivers/STM32F10x/v3.3.0/STM32F10x_StdPeriph_Driver/src/stm32f10x_flash.o
 .text.FLASH_EnableWriteProtection
                0x00000000       0xc4 project_build//C/mios32/trunk/drivers/STM32F10x/v3.3.0/STM32F10x_StdPeriph_Driver/src/stm32f10x_flash.o
 .text.FLASH_ProgramOptionByteData
                0x00000000       0x48 project_build//C/mios32/trunk/drivers/STM32F10x/v3.3.0/STM32F10x_StdPeriph_Driver/src/stm32f10x_flash.o
 .text.FLASH_ProgramHalfWord
                0x00000000       0x3c project_build//C/mios32/trunk/drivers/STM32F10x/v3.3.0/STM32F10x_StdPeriph_Driver/src/stm32f10x_flash.o
 .text.FLASH_ProgramWord
                0x00000000       0x58 project_build//C/mios32/trunk/drivers/STM32F10x/v3.3.0/STM32F10x_StdPeriph_Driver/src/stm32f10x_flash.o
 .text.FLASH_EraseOptionBytes
                0x00000000       0x80 project_build//C/mios32/trunk/drivers/STM32F10x/v3.3.0/STM32F10x_StdPeriph_Driver/src/stm32f10x_flash.o
 .text.FLASH_EraseAllPages
                0x00000000       0x3c project_build//C/mios32/trunk/drivers/STM32F10x/v3.3.0/STM32F10x_StdPeriph_Driver/src/stm32f10x_flash.o
 .text.FLASH_ErasePage
                0x00000000       0x40 project_build//C/mios32/trunk/drivers/STM32F10x/v3.3.0/STM32F10x_StdPeriph_Driver/src/stm32f10x_flash.o
 .text.FLASH_WaitForLastBank1Operation
                0x00000000       0x2a project_build//C/mios32/trunk/drivers/STM32F10x/v3.3.0/STM32F10x_StdPeriph_Driver/src/stm32f10x_flash.o
 .text.FLASH_EraseAllBank1Pages
                0x00000000       0x3c project_build//C/mios32/trunk/drivers/STM32F10x/v3.3.0/STM32F10x_StdPeriph_Driver/src/stm32f10x_flash.o
 .text          0x00000000        0x0 project_build//C/mios32/trunk/drivers/STM32F10x/v3.3.0/STM32F10x_StdPeriph_Driver/src/stm32f10x_adc.o
 .data          0x00000000        0x0 project_build//C/mios32/trunk/drivers/STM32F10x/v3.3.0/STM32F10x_StdPeriph_Driver/src/stm32f10x_adc.o
 .bss           0x00000000        0x0 project_build//C/mios32/trunk/drivers/STM32F10x/v3.3.0/STM32F10x_StdPeriph_Driver/src/stm32f10x_adc.o
 .text.ADC_DeInit
                0x00000000       0x58 project_build//C/mios32/trunk/drivers/STM32F10x/v3.3.0/STM32F10x_StdPeriph_Driver/src/stm32f10x_adc.o
 .text.ADC_ITConfig
                0x00000000       0x14 project_build//C/mios32/trunk/drivers/STM32F10x/v3.3.0/STM32F10x_StdPeriph_Driver/src/stm32f10x_adc.o
 .text.ADC_GetSoftwareStartConvStatus
                0x00000000        0x8 project_build//C/mios32/trunk/drivers/STM32F10x/v3.3.0/STM32F10x_StdPeriph_Driver/src/stm32f10x_adc.o
 .text.ADC_DiscModeChannelCountConfig
                0x00000000       0x10 project_build//C/mios32/trunk/drivers/STM32F10x/v3.3.0/STM32F10x_StdPeriph_Driver/src/stm32f10x_adc.o
 .text.ADC_DiscModeCmd
                0x00000000       0x14 project_build//C/mios32/trunk/drivers/STM32F10x/v3.3.0/STM32F10x_StdPeriph_Driver/src/stm32f10x_adc.o
 .text.ADC_GetConversionValue
                0x00000000        0x6 project_build//C/mios32/trunk/drivers/STM32F10x/v3.3.0/STM32F10x_StdPeriph_Driver/src/stm32f10x_adc.o
 .text.ADC_GetDualModeConversionValue
                0x00000000        0xc project_build//C/mios32/trunk/drivers/STM32F10x/v3.3.0/STM32F10x_StdPeriph_Driver/src/stm32f10x_adc.o
 .text.ADC_AutoInjectedConvCmd
                0x00000000       0x14 project_build//C/mios32/trunk/drivers/STM32F10x/v3.3.0/STM32F10x_StdPeriph_Driver/src/stm32f10x_adc.o
 .text.ADC_InjectedDiscModeCmd
                0x00000000       0x14 project_build//C/mios32/trunk/drivers/STM32F10x/v3.3.0/STM32F10x_StdPeriph_Driver/src/stm32f10x_adc.o
 .text.ADC_ExternalTrigInjectedConvConfig
                0x00000000        0xc project_build//C/mios32/trunk/drivers/STM32F10x/v3.3.0/STM32F10x_StdPeriph_Driver/src/stm32f10x_adc.o
 .text.ADC_ExternalTrigInjectedConvCmd
                0x00000000       0x14 project_build//C/mios32/trunk/drivers/STM32F10x/v3.3.0/STM32F10x_StdPeriph_Driver/src/stm32f10x_adc.o
 .text.ADC_SoftwareStartInjectedConvCmd
                0x00000000       0x14 project_build//C/mios32/trunk/drivers/STM32F10x/v3.3.0/STM32F10x_StdPeriph_Driver/src/stm32f10x_adc.o
 .text.ADC_GetSoftwareStartInjectedConvCmdStatus
                0x00000000        0x8 project_build//C/mios32/trunk/drivers/STM32F10x/v3.3.0/STM32F10x_StdPeriph_Driver/src/stm32f10x_adc.o
 .text.ADC_InjectedChannelConfig
                0x00000000       0x74 project_build//C/mios32/trunk/drivers/STM32F10x/v3.3.0/STM32F10x_StdPeriph_Driver/src/stm32f10x_adc.o
 .text.ADC_InjectedSequencerLengthConfig
                0x00000000       0x10 project_build//C/mios32/trunk/drivers/STM32F10x/v3.3.0/STM32F10x_StdPeriph_Driver/src/stm32f10x_adc.o
 .text.ADC_SetInjectedOffset
                0x00000000       0x16 project_build//C/mios32/trunk/drivers/STM32F10x/v3.3.0/STM32F10x_StdPeriph_Driver/src/stm32f10x_adc.o
 .text.ADC_GetInjectedConversionValue
                0x00000000       0x1a project_build//C/mios32/trunk/drivers/STM32F10x/v3.3.0/STM32F10x_StdPeriph_Driver/src/stm32f10x_adc.o
 .text.ADC_AnalogWatchdogCmd
                0x00000000       0x10 project_build//C/mios32/trunk/drivers/STM32F10x/v3.3.0/STM32F10x_StdPeriph_Driver/src/stm32f10x_adc.o
 .text.ADC_AnalogWatchdogThresholdsConfig
                0x00000000        0x6 project_build//C/mios32/trunk/drivers/STM32F10x/v3.3.0/STM32F10x_StdPeriph_Driver/src/stm32f10x_adc.o
 .text.ADC_AnalogWatchdogSingleChannelConfig
                0x00000000        0xc project_build//C/mios32/trunk/drivers/STM32F10x/v3.3.0/STM32F10x_StdPeriph_Driver/src/stm32f10x_adc.o
 .text.ADC_TempSensorVrefintCmd
                0x00000000       0x1c project_build//C/mios32/trunk/drivers/STM32F10x/v3.3.0/STM32F10x_StdPeriph_Driver/src/stm32f10x_adc.o
 .text.ADC_GetFlagStatus
                0x00000000        0xc project_build//C/mios32/trunk/drivers/STM32F10x/v3.3.0/STM32F10x_StdPeriph_Driver/src/stm32f10x_adc.o
 .text.ADC_ClearFlag
                0x00000000        0x6 project_build//C/mios32/trunk/drivers/STM32F10x/v3.3.0/STM32F10x_StdPeriph_Driver/src/stm32f10x_adc.o
 .text.ADC_GetITStatus
                0x00000000       0x16 project_build//C/mios32/trunk/drivers/STM32F10x/v3.3.0/STM32F10x_StdPeriph_Driver/src/stm32f10x_adc.o
 .text.ADC_ClearITPendingBit
                0x00000000        0x8 project_build//C/mios32/trunk/drivers/STM32F10x/v3.3.0/STM32F10x_StdPeriph_Driver/src/stm32f10x_adc.o
 .text          0x00000000        0x0 project_build//C/mios32/trunk/drivers/STM32F10x/v3.3.0/STM32F10x_StdPeriph_Driver/src/stm32f10x_dac.o
 .data          0x00000000        0x0 project_build//C/mios32/trunk/drivers/STM32F10x/v3.3.0/STM32F10x_StdPeriph_Driver/src/stm32f10x_dac.o
 .bss           0x00000000        0x0 project_build//C/mios32/trunk/drivers/STM32F10x/v3.3.0/STM32F10x_StdPeriph_Driver/src/stm32f10x_dac.o
 .text.DAC_DeInit
                0x00000000       0x18 project_build//C/mios32/trunk/drivers/STM32F10x/v3.3.0/STM32F10x_StdPeriph_Driver/src/stm32f10x_dac.o
 .text.DAC_Init
                0x00000000       0x3c project_build//C/mios32/trunk/drivers/STM32F10x/v3.3.0/STM32F10x_StdPeriph_Driver/src/stm32f10x_dac.o
 .text.DAC_StructInit
                0x00000000        0xc project_build//C/mios32/trunk/drivers/STM32F10x/v3.3.0/STM32F10x_StdPeriph_Driver/src/stm32f10x_dac.o
 .text.DAC_Cmd  0x00000000       0x28 project_build//C/mios32/trunk/drivers/STM32F10x/v3.3.0/STM32F10x_StdPeriph_Driver/src/stm32f10x_dac.o
 .text.DAC_DMACmd
                0x00000000       0x2c project_build//C/mios32/trunk/drivers/STM32F10x/v3.3.0/STM32F10x_StdPeriph_Driver/src/stm32f10x_dac.o
 .text.DAC_SoftwareTriggerCmd
                0x00000000       0x28 project_build//C/mios32/trunk/drivers/STM32F10x/v3.3.0/STM32F10x_StdPeriph_Driver/src/stm32f10x_dac.o
 .text.DAC_DualSoftwareTriggerCmd
                0x00000000       0x1c project_build//C/mios32/trunk/drivers/STM32F10x/v3.3.0/STM32F10x_StdPeriph_Driver/src/stm32f10x_dac.o
 .text.DAC_WaveGenerationCmd
                0x00000000       0x20 project_build//C/mios32/trunk/drivers/STM32F10x/v3.3.0/STM32F10x_StdPeriph_Driver/src/stm32f10x_dac.o
 .text.DAC_SetChannel1Data
                0x00000000       0x20 project_build//C/mios32/trunk/drivers/STM32F10x/v3.3.0/STM32F10x_StdPeriph_Driver/src/stm32f10x_dac.o
 .text.DAC_SetChannel2Data
                0x00000000       0x20 project_build//C/mios32/trunk/drivers/STM32F10x/v3.3.0/STM32F10x_StdPeriph_Driver/src/stm32f10x_dac.o
 .text.DAC_SetDualChannelData
                0x00000000       0x18 project_build//C/mios32/trunk/drivers/STM32F10x/v3.3.0/STM32F10x_StdPeriph_Driver/src/stm32f10x_dac.o
 .text.DAC_GetDataOutputValue
                0x00000000       0x24 project_build//C/mios32/trunk/drivers/STM32F10x/v3.3.0/STM32F10x_StdPeriph_Driver/src/stm32f10x_dac.o
 .text          0x00000000        0x0 project_build//C/mios32/trunk/drivers/STM32F10x/v3.3.0/STM32F10x_StdPeriph_Driver/src/stm32f10x_spi.o
 .data          0x00000000        0x0 project_build//C/mios32/trunk/drivers/STM32F10x/v3.3.0/STM32F10x_StdPeriph_Driver/src/stm32f10x_spi.o
 .bss           0x00000000        0x0 project_build//C/mios32/trunk/drivers/STM32F10x/v3.3.0/STM32F10x_StdPeriph_Driver/src/stm32f10x_spi.o
 .text.SPI_I2S_DeInit
                0x00000000       0x5c project_build//C/mios32/trunk/drivers/STM32F10x/v3.3.0/STM32F10x_StdPeriph_Driver/src/stm32f10x_spi.o
 .text.I2S_Init
                0x00000000       0xa8 project_build//C/mios32/trunk/drivers/STM32F10x/v3.3.0/STM32F10x_StdPeriph_Driver/src/stm32f10x_spi.o
 .text.SPI_StructInit
                0x00000000       0x18 project_build//C/mios32/trunk/drivers/STM32F10x/v3.3.0/STM32F10x_StdPeriph_Driver/src/stm32f10x_spi.o
 .text.I2S_StructInit
                0x00000000       0x12 project_build//C/mios32/trunk/drivers/STM32F10x/v3.3.0/STM32F10x_StdPeriph_Driver/src/stm32f10x_spi.o
 .text.I2S_Cmd  0x00000000       0x1a project_build//C/mios32/trunk/drivers/STM32F10x/v3.3.0/STM32F10x_StdPeriph_Driver/src/stm32f10x_spi.o
 .text.SPI_I2S_ITConfig
                0x00000000       0x20 project_build//C/mios32/trunk/drivers/STM32F10x/v3.3.0/STM32F10x_StdPeriph_Driver/src/stm32f10x_spi.o
 .text.SPI_I2S_SendData
                0x00000000        0x4 project_build//C/mios32/trunk/drivers/STM32F10x/v3.3.0/STM32F10x_StdPeriph_Driver/src/stm32f10x_spi.o
 .text.SPI_I2S_ReceiveData
                0x00000000        0x6 project_build//C/mios32/trunk/drivers/STM32F10x/v3.3.0/STM32F10x_StdPeriph_Driver/src/stm32f10x_spi.o
 .text.SPI_NSSInternalSoftwareConfig
                0x00000000       0x20 project_build//C/mios32/trunk/drivers/STM32F10x/v3.3.0/STM32F10x_StdPeriph_Driver/src/stm32f10x_spi.o
 .text.SPI_SSOutputCmd
                0x00000000       0x1a project_build//C/mios32/trunk/drivers/STM32F10x/v3.3.0/STM32F10x_StdPeriph_Driver/src/stm32f10x_spi.o
 .text.SPI_DataSizeConfig
                0x00000000       0x16 project_build//C/mios32/trunk/drivers/STM32F10x/v3.3.0/STM32F10x_StdPeriph_Driver/src/stm32f10x_spi.o
 .text.SPI_TransmitCRC
                0x00000000        0xc project_build//C/mios32/trunk/drivers/STM32F10x/v3.3.0/STM32F10x_StdPeriph_Driver/src/stm32f10x_spi.o
 .text.SPI_CalculateCRC
                0x00000000       0x1a project_build//C/mios32/trunk/drivers/STM32F10x/v3.3.0/STM32F10x_StdPeriph_Driver/src/stm32f10x_spi.o
 .text.SPI_GetCRC
                0x00000000        0xc project_build//C/mios32/trunk/drivers/STM32F10x/v3.3.0/STM32F10x_StdPeriph_Driver/src/stm32f10x_spi.o
 .text.SPI_GetCRCPolynomial
                0x00000000        0x6 project_build//C/mios32/trunk/drivers/STM32F10x/v3.3.0/STM32F10x_StdPeriph_Driver/src/stm32f10x_spi.o
 .text.SPI_BiDirectionalLineConfig
                0x00000000       0x1e project_build//C/mios32/trunk/drivers/STM32F10x/v3.3.0/STM32F10x_StdPeriph_Driver/src/stm32f10x_spi.o
 .text.SPI_I2S_GetFlagStatus
                0x00000000        0xc project_build//C/mios32/trunk/drivers/STM32F10x/v3.3.0/STM32F10x_StdPeriph_Driver/src/stm32f10x_spi.o
 .text.SPI_I2S_ClearFlag
                0x00000000        0x8 project_build//C/mios32/trunk/drivers/STM32F10x/v3.3.0/STM32F10x_StdPeriph_Driver/src/stm32f10x_spi.o
 .text.SPI_I2S_GetITStatus
                0x00000000       0x2a project_build//C/mios32/trunk/drivers/STM32F10x/v3.3.0/STM32F10x_StdPeriph_Driver/src/stm32f10x_spi.o
 .text.SPI_I2S_ClearITPendingBit
                0x00000000       0x10 project_build//C/mios32/trunk/drivers/STM32F10x/v3.3.0/STM32F10x_StdPeriph_Driver/src/stm32f10x_spi.o
 .text          0x00000000        0x0 project_build//C/mios32/trunk/drivers/STM32F10x/v3.3.0/STM32F10x_StdPeriph_Driver/src/stm32f10x_usart.o
 .data          0x00000000        0x0 project_build//C/mios32/trunk/drivers/STM32F10x/v3.3.0/STM32F10x_StdPeriph_Driver/src/stm32f10x_usart.o
 .bss           0x00000000        0x0 project_build//C/mios32/trunk/drivers/STM32F10x/v3.3.0/STM32F10x_StdPeriph_Driver/src/stm32f10x_usart.o
 .text.USART_DeInit
                0x00000000       0x90 project_build//C/mios32/trunk/drivers/STM32F10x/v3.3.0/STM32F10x_StdPeriph_Driver/src/stm32f10x_usart.o
 .text.USART_StructInit
                0x00000000       0x18 project_build//C/mios32/trunk/drivers/STM32F10x/v3.3.0/STM32F10x_StdPeriph_Driver/src/stm32f10x_usart.o
 .text.USART_ClockInit
                0x00000000       0x2a project_build//C/mios32/trunk/drivers/STM32F10x/v3.3.0/STM32F10x_StdPeriph_Driver/src/stm32f10x_usart.o
 .text.USART_ClockStructInit
                0x00000000        0xc project_build//C/mios32/trunk/drivers/STM32F10x/v3.3.0/STM32F10x_StdPeriph_Driver/src/stm32f10x_usart.o
 .text.USART_DMACmd
                0x00000000       0x16 project_build//C/mios32/trunk/drivers/STM32F10x/v3.3.0/STM32F10x_StdPeriph_Driver/src/stm32f10x_usart.o
 .text.USART_SetAddress
                0x00000000       0x16 project_build//C/mios32/trunk/drivers/STM32F10x/v3.3.0/STM32F10x_StdPeriph_Driver/src/stm32f10x_usart.o
 .text.USART_WakeUpConfig
                0x00000000       0x16 project_build//C/mios32/trunk/drivers/STM32F10x/v3.3.0/STM32F10x_StdPeriph_Driver/src/stm32f10x_usart.o
 .text.USART_ReceiverWakeUpCmd
                0x00000000       0x1a project_build//C/mios32/trunk/drivers/STM32F10x/v3.3.0/STM32F10x_StdPeriph_Driver/src/stm32f10x_usart.o
 .text.USART_LINBreakDetectLengthConfig
                0x00000000       0x16 project_build//C/mios32/trunk/drivers/STM32F10x/v3.3.0/STM32F10x_StdPeriph_Driver/src/stm32f10x_usart.o
 .text.USART_LINCmd
                0x00000000       0x1a project_build//C/mios32/trunk/drivers/STM32F10x/v3.3.0/STM32F10x_StdPeriph_Driver/src/stm32f10x_usart.o
 .text.USART_SendData
                0x00000000        0x8 project_build//C/mios32/trunk/drivers/STM32F10x/v3.3.0/STM32F10x_StdPeriph_Driver/src/stm32f10x_usart.o
 .text.USART_ReceiveData
                0x00000000        0x8 project_build//C/mios32/trunk/drivers/STM32F10x/v3.3.0/STM32F10x_StdPeriph_Driver/src/stm32f10x_usart.o
 .text.USART_SendBreak
                0x00000000        0xc project_build//C/mios32/trunk/drivers/STM32F10x/v3.3.0/STM32F10x_StdPeriph_Driver/src/stm32f10x_usart.o
 .text.USART_SetGuardTime
                0x00000000       0x12 project_build//C/mios32/trunk/drivers/STM32F10x/v3.3.0/STM32F10x_StdPeriph_Driver/src/stm32f10x_usart.o
 .text.USART_SetPrescaler
                0x00000000       0x12 project_build//C/mios32/trunk/drivers/STM32F10x/v3.3.0/STM32F10x_StdPeriph_Driver/src/stm32f10x_usart.o
 .text.USART_SmartCardCmd
                0x00000000       0x1a project_build//C/mios32/trunk/drivers/STM32F10x/v3.3.0/STM32F10x_StdPeriph_Driver/src/stm32f10x_usart.o
 .text.USART_SmartCardNACKCmd
                0x00000000       0x1a project_build//C/mios32/trunk/drivers/STM32F10x/v3.3.0/STM32F10x_StdPeriph_Driver/src/stm32f10x_usart.o
 .text.USART_HalfDuplexCmd
                0x00000000       0x1a project_build//C/mios32/trunk/drivers/STM32F10x/v3.3.0/STM32F10x_StdPeriph_Driver/src/stm32f10x_usart.o
 .text.USART_OverSampling8Cmd
                0x00000000       0x1a project_build//C/mios32/trunk/drivers/STM32F10x/v3.3.0/STM32F10x_StdPeriph_Driver/src/stm32f10x_usart.o
 .text.USART_OneBitMethodCmd
                0x00000000       0x1a project_build//C/mios32/trunk/drivers/STM32F10x/v3.3.0/STM32F10x_StdPeriph_Driver/src/stm32f10x_usart.o
 .text.USART_IrDAConfig
                0x00000000       0x16 project_build//C/mios32/trunk/drivers/STM32F10x/v3.3.0/STM32F10x_StdPeriph_Driver/src/stm32f10x_usart.o
 .text.USART_IrDACmd
                0x00000000       0x1a project_build//C/mios32/trunk/drivers/STM32F10x/v3.3.0/STM32F10x_StdPeriph_Driver/src/stm32f10x_usart.o
 .text.USART_GetFlagStatus
                0x00000000        0xc project_build//C/mios32/trunk/drivers/STM32F10x/v3.3.0/STM32F10x_StdPeriph_Driver/src/stm32f10x_usart.o
 .text.USART_ClearFlag
                0x00000000        0x8 project_build//C/mios32/trunk/drivers/STM32F10x/v3.3.0/STM32F10x_StdPeriph_Driver/src/stm32f10x_usart.o
 .text.USART_GetITStatus
                0x00000000       0x46 project_build//C/mios32/trunk/drivers/STM32F10x/v3.3.0/STM32F10x_StdPeriph_Driver/src/stm32f10x_usart.o
 .text.USART_ClearITPendingBit
                0x00000000        0xe project_build//C/mios32/trunk/drivers/STM32F10x/v3.3.0/STM32F10x_StdPeriph_Driver/src/stm32f10x_usart.o
 .text          0x00000000        0x0 project_build//C/mios32/trunk/drivers/STM32F10x/v3.3.0/STM32F10x_StdPeriph_Driver/src/stm32f10x_i2c.o
 .data          0x00000000        0x0 project_build//C/mios32/trunk/drivers/STM32F10x/v3.3.0/STM32F10x_StdPeriph_Driver/src/stm32f10x_i2c.o
 .bss           0x00000000        0x0 project_build//C/mios32/trunk/drivers/STM32F10x/v3.3.0/STM32F10x_StdPeriph_Driver/src/stm32f10x_i2c.o
 .text.I2C_DeInit
                0x00000000       0x34 project_build//C/mios32/trunk/drivers/STM32F10x/v3.3.0/STM32F10x_StdPeriph_Driver/src/stm32f10x_i2c.o
 .text.I2C_Init
                0x00000000       0xd8 project_build//C/mios32/trunk/drivers/STM32F10x/v3.3.0/STM32F10x_StdPeriph_Driver/src/stm32f10x_i2c.o
 .text.I2C_StructInit
                0x00000000       0x1c project_build//C/mios32/trunk/drivers/STM32F10x/v3.3.0/STM32F10x_StdPeriph_Driver/src/stm32f10x_i2c.o
 .text.I2C_Cmd  0x00000000       0x1a project_build//C/mios32/trunk/drivers/STM32F10x/v3.3.0/STM32F10x_StdPeriph_Driver/src/stm32f10x_i2c.o
 .text.I2C_DMACmd
                0x00000000       0x1a project_build//C/mios32/trunk/drivers/STM32F10x/v3.3.0/STM32F10x_StdPeriph_Driver/src/stm32f10x_i2c.o
 .text.I2C_DMALastTransferCmd
                0x00000000       0x1a project_build//C/mios32/trunk/drivers/STM32F10x/v3.3.0/STM32F10x_StdPeriph_Driver/src/stm32f10x_i2c.o
 .text.I2C_OwnAddress2Config
                0x00000000       0x12 project_build//C/mios32/trunk/drivers/STM32F10x/v3.3.0/STM32F10x_StdPeriph_Driver/src/stm32f10x_i2c.o
 .text.I2C_DualAddressCmd
                0x00000000       0x1a project_build//C/mios32/trunk/drivers/STM32F10x/v3.3.0/STM32F10x_StdPeriph_Driver/src/stm32f10x_i2c.o
 .text.I2C_GeneralCallCmd
                0x00000000       0x1a project_build//C/mios32/trunk/drivers/STM32F10x/v3.3.0/STM32F10x_StdPeriph_Driver/src/stm32f10x_i2c.o
 .text.I2C_ReadRegister
                0x00000000       0x18 project_build//C/mios32/trunk/drivers/STM32F10x/v3.3.0/STM32F10x_StdPeriph_Driver/src/stm32f10x_i2c.o
 .text.I2C_SoftwareResetCmd
                0x00000000       0x1a project_build//C/mios32/trunk/drivers/STM32F10x/v3.3.0/STM32F10x_StdPeriph_Driver/src/stm32f10x_i2c.o
 .text.I2C_SMBusAlertConfig
                0x00000000       0x1e project_build//C/mios32/trunk/drivers/STM32F10x/v3.3.0/STM32F10x_StdPeriph_Driver/src/stm32f10x_i2c.o
 .text.I2C_TransmitPEC
                0x00000000       0x1a project_build//C/mios32/trunk/drivers/STM32F10x/v3.3.0/STM32F10x_StdPeriph_Driver/src/stm32f10x_i2c.o
 .text.I2C_PECPositionConfig
                0x00000000       0x1e project_build//C/mios32/trunk/drivers/STM32F10x/v3.3.0/STM32F10x_StdPeriph_Driver/src/stm32f10x_i2c.o
 .text.I2C_CalculatePEC
                0x00000000       0x1a project_build//C/mios32/trunk/drivers/STM32F10x/v3.3.0/STM32F10x_StdPeriph_Driver/src/stm32f10x_i2c.o
 .text.I2C_GetPEC
                0x00000000        0x8 project_build//C/mios32/trunk/drivers/STM32F10x/v3.3.0/STM32F10x_StdPeriph_Driver/src/stm32f10x_i2c.o
 .text.I2C_ARPCmd
                0x00000000       0x1a project_build//C/mios32/trunk/drivers/STM32F10x/v3.3.0/STM32F10x_StdPeriph_Driver/src/stm32f10x_i2c.o
 .text.I2C_StretchClockCmd
                0x00000000       0x1a project_build//C/mios32/trunk/drivers/STM32F10x/v3.3.0/STM32F10x_StdPeriph_Driver/src/stm32f10x_i2c.o
 .text.I2C_FastModeDutyCycleConfig
                0x00000000       0x1e project_build//C/mios32/trunk/drivers/STM32F10x/v3.3.0/STM32F10x_StdPeriph_Driver/src/stm32f10x_i2c.o
 .text.I2C_CheckEvent
                0x00000000       0x1a project_build//C/mios32/trunk/drivers/STM32F10x/v3.3.0/STM32F10x_StdPeriph_Driver/src/stm32f10x_i2c.o
 .text.I2C_GetFlagStatus
                0x00000000       0x34 project_build//C/mios32/trunk/drivers/STM32F10x/v3.3.0/STM32F10x_StdPeriph_Driver/src/stm32f10x_i2c.o
 .text.I2C_ClearFlag
                0x00000000        0x8 project_build//C/mios32/trunk/drivers/STM32F10x/v3.3.0/STM32F10x_StdPeriph_Driver/src/stm32f10x_i2c.o
 .text.I2C_GetITStatus
                0x00000000       0x1c project_build//C/mios32/trunk/drivers/STM32F10x/v3.3.0/STM32F10x_StdPeriph_Driver/src/stm32f10x_i2c.o
 .text          0x00000000        0x0 project_build//C/mios32/trunk/drivers/STM32F10x/v3.3.0/STM32F10x_StdPeriph_Driver/src/stm32f10x_dma.o
 .data          0x00000000        0x0 project_build//C/mios32/trunk/drivers/STM32F10x/v3.3.0/STM32F10x_StdPeriph_Driver/src/stm32f10x_dma.o
 .bss           0x00000000        0x0 project_build//C/mios32/trunk/drivers/STM32F10x/v3.3.0/STM32F10x_StdPeriph_Driver/src/stm32f10x_dma.o
 .text.DMA_GetCurrDataCounter
                0x00000000        0x6 project_build//C/mios32/trunk/drivers/STM32F10x/v3.3.0/STM32F10x_StdPeriph_Driver/src/stm32f10x_dma.o
 .text.DMA_GetFlagStatus
                0x00000000       0x20 project_build//C/mios32/trunk/drivers/STM32F10x/v3.3.0/STM32F10x_StdPeriph_Driver/src/stm32f10x_dma.o
 .text.DMA_GetITStatus
                0x00000000       0x20 project_build//C/mios32/trunk/drivers/STM32F10x/v3.3.0/STM32F10x_StdPeriph_Driver/src/stm32f10x_dma.o
 .text.DMA_ClearITPendingBit
                0x00000000       0x18 project_build//C/mios32/trunk/drivers/STM32F10x/v3.3.0/STM32F10x_StdPeriph_Driver/src/stm32f10x_dma.o
 .text          0x00000000        0x0 project_build//C/mios32/trunk/drivers/STM32F10x/v3.3.0/STM32F10x_StdPeriph_Driver/src/stm32f10x_tim.o
 .data          0x00000000        0x0 project_build//C/mios32/trunk/drivers/STM32F10x/v3.3.0/STM32F10x_StdPeriph_Driver/src/stm32f10x_tim.o
 .bss           0x00000000        0x0 project_build//C/mios32/trunk/drivers/STM32F10x/v3.3.0/STM32F10x_StdPeriph_Driver/src/stm32f10x_tim.o
 .text.TI2_Config
                0x00000000       0x48 project_build//C/mios32/trunk/drivers/STM32F10x/v3.3.0/STM32F10x_StdPeriph_Driver/src/stm32f10x_tim.o
 .text.TIM_DeInit
                0x00000000      0x1a4 project_build//C/mios32/trunk/drivers/STM32F10x/v3.3.0/STM32F10x_StdPeriph_Driver/src/stm32f10x_tim.o
 .text.TIM_OC1Init
                0x00000000       0xb0 project_build//C/mios32/trunk/drivers/STM32F10x/v3.3.0/STM32F10x_StdPeriph_Driver/src/stm32f10x_tim.o
 .text.TIM_OC2Init
                0x00000000       0x9c project_build//C/mios32/trunk/drivers/STM32F10x/v3.3.0/STM32F10x_StdPeriph_Driver/src/stm32f10x_tim.o
 .text.TIM_OC3Init
                0x00000000       0x98 project_build//C/mios32/trunk/drivers/STM32F10x/v3.3.0/STM32F10x_StdPeriph_Driver/src/stm32f10x_tim.o
 .text.TIM_OC4Init
                0x00000000       0x7c project_build//C/mios32/trunk/drivers/STM32F10x/v3.3.0/STM32F10x_StdPeriph_Driver/src/stm32f10x_tim.o
 .text.TIM_ICInit
                0x00000000      0x130 project_build//C/mios32/trunk/drivers/STM32F10x/v3.3.0/STM32F10x_StdPeriph_Driver/src/stm32f10x_tim.o
 .text.TIM_PWMIConfig
                0x00000000      0x102 project_build//C/mios32/trunk/drivers/STM32F10x/v3.3.0/STM32F10x_StdPeriph_Driver/src/stm32f10x_tim.o
 .text.TIM_BDTRConfig
                0x00000000       0x24 project_build//C/mios32/trunk/drivers/STM32F10x/v3.3.0/STM32F10x_StdPeriph_Driver/src/stm32f10x_tim.o
 .text.TIM_TimeBaseStructInit
                0x00000000       0x12 project_build//C/mios32/trunk/drivers/STM32F10x/v3.3.0/STM32F10x_StdPeriph_Driver/src/stm32f10x_tim.o
 .text.TIM_OCStructInit
                0x00000000       0x14 project_build//C/mios32/trunk/drivers/STM32F10x/v3.3.0/STM32F10x_StdPeriph_Driver/src/stm32f10x_tim.o
 .text.TIM_ICStructInit
                0x00000000       0x10 project_build//C/mios32/trunk/drivers/STM32F10x/v3.3.0/STM32F10x_StdPeriph_Driver/src/stm32f10x_tim.o
 .text.TIM_BDTRStructInit
                0x00000000       0x12 project_build//C/mios32/trunk/drivers/STM32F10x/v3.3.0/STM32F10x_StdPeriph_Driver/src/stm32f10x_tim.o
 .text.TIM_CtrlPWMOutputs
                0x00000000       0x20 project_build//C/mios32/trunk/drivers/STM32F10x/v3.3.0/STM32F10x_StdPeriph_Driver/src/stm32f10x_tim.o
 .text.TIM_ITConfig
                0x00000000       0x16 project_build//C/mios32/trunk/drivers/STM32F10x/v3.3.0/STM32F10x_StdPeriph_Driver/src/stm32f10x_tim.o
 .text.TIM_GenerateEvent
                0x00000000        0x4 project_build//C/mios32/trunk/drivers/STM32F10x/v3.3.0/STM32F10x_StdPeriph_Driver/src/stm32f10x_tim.o
 .text.TIM_DMAConfig
                0x00000000        0xa project_build//C/mios32/trunk/drivers/STM32F10x/v3.3.0/STM32F10x_StdPeriph_Driver/src/stm32f10x_tim.o
 .text.TIM_DMACmd
                0x00000000       0x16 project_build//C/mios32/trunk/drivers/STM32F10x/v3.3.0/STM32F10x_StdPeriph_Driver/src/stm32f10x_tim.o
 .text.TIM_InternalClockConfig
                0x00000000        0xe project_build//C/mios32/trunk/drivers/STM32F10x/v3.3.0/STM32F10x_StdPeriph_Driver/src/stm32f10x_tim.o
 .text.TIM_ITRxExternalClockConfig
                0x00000000       0x1c project_build//C/mios32/trunk/drivers/STM32F10x/v3.3.0/STM32F10x_StdPeriph_Driver/src/stm32f10x_tim.o
 .text.TIM_TIxExternalClockConfig
                0x00000000       0x60 project_build//C/mios32/trunk/drivers/STM32F10x/v3.3.0/STM32F10x_StdPeriph_Driver/src/stm32f10x_tim.o
 .text.TIM_ETRClockMode1Config
                0x00000000       0x28 project_build//C/mios32/trunk/drivers/STM32F10x/v3.3.0/STM32F10x_StdPeriph_Driver/src/stm32f10x_tim.o
 .text.TIM_ETRClockMode2Config
                0x00000000       0x22 project_build//C/mios32/trunk/drivers/STM32F10x/v3.3.0/STM32F10x_StdPeriph_Driver/src/stm32f10x_tim.o
 .text.TIM_ETRConfig
                0x00000000       0x18 project_build//C/mios32/trunk/drivers/STM32F10x/v3.3.0/STM32F10x_StdPeriph_Driver/src/stm32f10x_tim.o
 .text.TIM_PrescalerConfig
                0x00000000        0x6 project_build//C/mios32/trunk/drivers/STM32F10x/v3.3.0/STM32F10x_StdPeriph_Driver/src/stm32f10x_tim.o
 .text.TIM_CounterModeConfig
                0x00000000       0x12 project_build//C/mios32/trunk/drivers/STM32F10x/v3.3.0/STM32F10x_StdPeriph_Driver/src/stm32f10x_tim.o
 .text.TIM_SelectInputTrigger
                0x00000000       0x12 project_build//C/mios32/trunk/drivers/STM32F10x/v3.3.0/STM32F10x_StdPeriph_Driver/src/stm32f10x_tim.o
 .text.TIM_EncoderInterfaceConfig
                0x00000000       0x44 project_build//C/mios32/trunk/drivers/STM32F10x/v3.3.0/STM32F10x_StdPeriph_Driver/src/stm32f10x_tim.o
 .text.TIM_ForcedOC1Config
                0x00000000       0x12 project_build//C/mios32/trunk/drivers/STM32F10x/v3.3.0/STM32F10x_StdPeriph_Driver/src/stm32f10x_tim.o
 .text.TIM_ForcedOC2Config
                0x00000000       0x14 project_build//C/mios32/trunk/drivers/STM32F10x/v3.3.0/STM32F10x_StdPeriph_Driver/src/stm32f10x_tim.o
 .text.TIM_ForcedOC3Config
                0x00000000       0x12 project_build//C/mios32/trunk/drivers/STM32F10x/v3.3.0/STM32F10x_StdPeriph_Driver/src/stm32f10x_tim.o
 .text.TIM_ForcedOC4Config
                0x00000000       0x14 project_build//C/mios32/trunk/drivers/STM32F10x/v3.3.0/STM32F10x_StdPeriph_Driver/src/stm32f10x_tim.o
 .text.TIM_ARRPreloadConfig
                0x00000000       0x1a project_build//C/mios32/trunk/drivers/STM32F10x/v3.3.0/STM32F10x_StdPeriph_Driver/src/stm32f10x_tim.o
 .text.TIM_SelectCOM
                0x00000000       0x1a project_build//C/mios32/trunk/drivers/STM32F10x/v3.3.0/STM32F10x_StdPeriph_Driver/src/stm32f10x_tim.o
 .text.TIM_SelectCCDMA
                0x00000000       0x1a project_build//C/mios32/trunk/drivers/STM32F10x/v3.3.0/STM32F10x_StdPeriph_Driver/src/stm32f10x_tim.o
 .text.TIM_CCPreloadControl
                0x00000000       0x1a project_build//C/mios32/trunk/drivers/STM32F10x/v3.3.0/STM32F10x_StdPeriph_Driver/src/stm32f10x_tim.o
 .text.TIM_OC1PreloadConfig
                0x00000000       0x12 project_build//C/mios32/trunk/drivers/STM32F10x/v3.3.0/STM32F10x_StdPeriph_Driver/src/stm32f10x_tim.o
 .text.TIM_OC2PreloadConfig
                0x00000000       0x14 project_build//C/mios32/trunk/drivers/STM32F10x/v3.3.0/STM32F10x_StdPeriph_Driver/src/stm32f10x_tim.o
 .text.TIM_OC3PreloadConfig
                0x00000000       0x12 project_build//C/mios32/trunk/drivers/STM32F10x/v3.3.0/STM32F10x_StdPeriph_Driver/src/stm32f10x_tim.o
 .text.TIM_OC4PreloadConfig
                0x00000000       0x14 project_build//C/mios32/trunk/drivers/STM32F10x/v3.3.0/STM32F10x_StdPeriph_Driver/src/stm32f10x_tim.o
 .text.TIM_OC1FastConfig
                0x00000000       0x12 project_build//C/mios32/trunk/drivers/STM32F10x/v3.3.0/STM32F10x_StdPeriph_Driver/src/stm32f10x_tim.o
 .text.TIM_OC2FastConfig
                0x00000000       0x14 project_build//C/mios32/trunk/drivers/STM32F10x/v3.3.0/STM32F10x_StdPeriph_Driver/src/stm32f10x_tim.o
 .text.TIM_OC3FastConfig
                0x00000000       0x12 project_build//C/mios32/trunk/drivers/STM32F10x/v3.3.0/STM32F10x_StdPeriph_Driver/src/stm32f10x_tim.o
 .text.TIM_OC4FastConfig
                0x00000000       0x14 project_build//C/mios32/trunk/drivers/STM32F10x/v3.3.0/STM32F10x_StdPeriph_Driver/src/stm32f10x_tim.o
 .text.TIM_ClearOC1Ref
                0x00000000       0x12 project_build//C/mios32/trunk/drivers/STM32F10x/v3.3.0/STM32F10x_StdPeriph_Driver/src/stm32f10x_tim.o
 .text.TIM_ClearOC2Ref
                0x00000000       0x10 project_build//C/mios32/trunk/drivers/STM32F10x/v3.3.0/STM32F10x_StdPeriph_Driver/src/stm32f10x_tim.o
 .text.TIM_ClearOC3Ref
                0x00000000       0x12 project_build//C/mios32/trunk/drivers/STM32F10x/v3.3.0/STM32F10x_StdPeriph_Driver/src/stm32f10x_tim.o
 .text.TIM_ClearOC4Ref
                0x00000000       0x10 project_build//C/mios32/trunk/drivers/STM32F10x/v3.3.0/STM32F10x_StdPeriph_Driver/src/stm32f10x_tim.o
 .text.TIM_OC1PolarityConfig
                0x00000000       0x12 project_build//C/mios32/trunk/drivers/STM32F10x/v3.3.0/STM32F10x_StdPeriph_Driver/src/stm32f10x_tim.o
 .text.TIM_OC1NPolarityConfig
                0x00000000       0x12 project_build//C/mios32/trunk/drivers/STM32F10x/v3.3.0/STM32F10x_StdPeriph_Driver/src/stm32f10x_tim.o
 .text.TIM_OC2PolarityConfig
                0x00000000       0x14 project_build//C/mios32/trunk/drivers/STM32F10x/v3.3.0/STM32F10x_StdPeriph_Driver/src/stm32f10x_tim.o
 .text.TIM_OC2NPolarityConfig
                0x00000000       0x14 project_build//C/mios32/trunk/drivers/STM32F10x/v3.3.0/STM32F10x_StdPeriph_Driver/src/stm32f10x_tim.o
 .text.TIM_OC3PolarityConfig
                0x00000000       0x14 project_build//C/mios32/trunk/drivers/STM32F10x/v3.3.0/STM32F10x_StdPeriph_Driver/src/stm32f10x_tim.o
 .text.TIM_OC3NPolarityConfig
                0x00000000       0x14 project_build//C/mios32/trunk/drivers/STM32F10x/v3.3.0/STM32F10x_StdPeriph_Driver/src/stm32f10x_tim.o
 .text.TIM_OC4PolarityConfig
                0x00000000       0x14 project_build//C/mios32/trunk/drivers/STM32F10x/v3.3.0/STM32F10x_StdPeriph_Driver/src/stm32f10x_tim.o
 .text.TIM_CCxCmd
                0x00000000       0x20 project_build//C/mios32/trunk/drivers/STM32F10x/v3.3.0/STM32F10x_StdPeriph_Driver/src/stm32f10x_tim.o
 .text.TIM_CCxNCmd
                0x00000000       0x20 project_build//C/mios32/trunk/drivers/STM32F10x/v3.3.0/STM32F10x_StdPeriph_Driver/src/stm32f10x_tim.o
 .text.TIM_SelectOCxM
                0x00000000       0x56 project_build//C/mios32/trunk/drivers/STM32F10x/v3.3.0/STM32F10x_StdPeriph_Driver/src/stm32f10x_tim.o
 .text.TIM_UpdateDisableConfig
                0x00000000       0x1a project_build//C/mios32/trunk/drivers/STM32F10x/v3.3.0/STM32F10x_StdPeriph_Driver/src/stm32f10x_tim.o
 .text.TIM_UpdateRequestConfig
                0x00000000       0x1a project_build//C/mios32/trunk/drivers/STM32F10x/v3.3.0/STM32F10x_StdPeriph_Driver/src/stm32f10x_tim.o
 .text.TIM_SelectHallSensor
                0x00000000       0x1a project_build//C/mios32/trunk/drivers/STM32F10x/v3.3.0/STM32F10x_StdPeriph_Driver/src/stm32f10x_tim.o
 .text.TIM_SelectOnePulseMode
                0x00000000       0x16 project_build//C/mios32/trunk/drivers/STM32F10x/v3.3.0/STM32F10x_StdPeriph_Driver/src/stm32f10x_tim.o
 .text.TIM_SelectOutputTrigger
                0x00000000       0x16 project_build//C/mios32/trunk/drivers/STM32F10x/v3.3.0/STM32F10x_StdPeriph_Driver/src/stm32f10x_tim.o
 .text.TIM_SelectSlaveMode
                0x00000000       0x16 project_build//C/mios32/trunk/drivers/STM32F10x/v3.3.0/STM32F10x_StdPeriph_Driver/src/stm32f10x_tim.o
 .text.TIM_SelectMasterSlaveMode
                0x00000000       0x16 project_build//C/mios32/trunk/drivers/STM32F10x/v3.3.0/STM32F10x_StdPeriph_Driver/src/stm32f10x_tim.o
 .text.TIM_SetCounter
                0x00000000        0x4 project_build//C/mios32/trunk/drivers/STM32F10x/v3.3.0/STM32F10x_StdPeriph_Driver/src/stm32f10x_tim.o
 .text.TIM_SetAutoreload
                0x00000000        0x4 project_build//C/mios32/trunk/drivers/STM32F10x/v3.3.0/STM32F10x_StdPeriph_Driver/src/stm32f10x_tim.o
 .text.TIM_SetCompare1
                0x00000000        0x4 project_build//C/mios32/trunk/drivers/STM32F10x/v3.3.0/STM32F10x_StdPeriph_Driver/src/stm32f10x_tim.o
 .text.TIM_SetCompare2
                0x00000000        0x4 project_build//C/mios32/trunk/drivers/STM32F10x/v3.3.0/STM32F10x_StdPeriph_Driver/src/stm32f10x_tim.o
 .text.TIM_SetCompare3
                0x00000000        0x4 project_build//C/mios32/trunk/drivers/STM32F10x/v3.3.0/STM32F10x_StdPeriph_Driver/src/stm32f10x_tim.o
 .text.TIM_SetCompare4
                0x00000000        0x6 project_build//C/mios32/trunk/drivers/STM32F10x/v3.3.0/STM32F10x_StdPeriph_Driver/src/stm32f10x_tim.o
 .text.TIM_SetIC1Prescaler
                0x00000000       0x16 project_build//C/mios32/trunk/drivers/STM32F10x/v3.3.0/STM32F10x_StdPeriph_Driver/src/stm32f10x_tim.o
 .text.TIM_SetIC2Prescaler
                0x00000000       0x1a project_build//C/mios32/trunk/drivers/STM32F10x/v3.3.0/STM32F10x_StdPeriph_Driver/src/stm32f10x_tim.o
 .text.TIM_SetIC3Prescaler
                0x00000000       0x16 project_build//C/mios32/trunk/drivers/STM32F10x/v3.3.0/STM32F10x_StdPeriph_Driver/src/stm32f10x_tim.o
 .text.TIM_SetIC4Prescaler
                0x00000000       0x1a project_build//C/mios32/trunk/drivers/STM32F10x/v3.3.0/STM32F10x_StdPeriph_Driver/src/stm32f10x_tim.o
 .text.TIM_SetClockDivision
                0x00000000       0x16 project_build//C/mios32/trunk/drivers/STM32F10x/v3.3.0/STM32F10x_StdPeriph_Driver/src/stm32f10x_tim.o
 .text.TIM_GetCapture1
                0x00000000        0x6 project_build//C/mios32/trunk/drivers/STM32F10x/v3.3.0/STM32F10x_StdPeriph_Driver/src/stm32f10x_tim.o
 .text.TIM_GetCapture2
                0x00000000        0x6 project_build//C/mios32/trunk/drivers/STM32F10x/v3.3.0/STM32F10x_StdPeriph_Driver/src/stm32f10x_tim.o
 .text.TIM_GetCapture3
                0x00000000        0x6 project_build//C/mios32/trunk/drivers/STM32F10x/v3.3.0/STM32F10x_StdPeriph_Driver/src/stm32f10x_tim.o
 .text.TIM_GetCapture4
                0x00000000        0x8 project_build//C/mios32/trunk/drivers/STM32F10x/v3.3.0/STM32F10x_StdPeriph_Driver/src/stm32f10x_tim.o
 .text.TIM_GetCounter
                0x00000000        0x6 project_build//C/mios32/trunk/drivers/STM32F10x/v3.3.0/STM32F10x_StdPeriph_Driver/src/stm32f10x_tim.o
 .text.TIM_GetPrescaler
                0x00000000        0x6 project_build//C/mios32/trunk/drivers/STM32F10x/v3.3.0/STM32F10x_StdPeriph_Driver/src/stm32f10x_tim.o
 .text.TIM_GetFlagStatus
                0x00000000        0xc project_build//C/mios32/trunk/drivers/STM32F10x/v3.3.0/STM32F10x_StdPeriph_Driver/src/stm32f10x_tim.o
 .text.TIM_ClearFlag
                0x00000000        0x8 project_build//C/mios32/trunk/drivers/STM32F10x/v3.3.0/STM32F10x_StdPeriph_Driver/src/stm32f10x_tim.o
 .text          0x00000000        0x0 project_build//C/mios32/trunk/drivers/STM32F10x/v3.3.0/STM32F10x_StdPeriph_Driver/src/stm32f10x_rcc.o
 .data          0x00000000        0x0 project_build//C/mios32/trunk/drivers/STM32F10x/v3.3.0/STM32F10x_StdPeriph_Driver/src/stm32f10x_rcc.o
 .bss           0x00000000        0x0 project_build//C/mios32/trunk/drivers/STM32F10x/v3.3.0/STM32F10x_StdPeriph_Driver/src/stm32f10x_rcc.o
 .text.RCC_AdjustHSICalibrationValue
                0x00000000       0x14 project_build//C/mios32/trunk/drivers/STM32F10x/v3.3.0/STM32F10x_StdPeriph_Driver/src/stm32f10x_rcc.o
 .text.RCC_HSICmd
                0x00000000        0xc project_build//C/mios32/trunk/drivers/STM32F10x/v3.3.0/STM32F10x_StdPeriph_Driver/src/stm32f10x_rcc.o
 .text.RCC_ITConfig
                0x00000000       0x1c project_build//C/mios32/trunk/drivers/STM32F10x/v3.3.0/STM32F10x_StdPeriph_Driver/src/stm32f10x_rcc.o
 .text.RCC_LSEConfig
                0x00000000       0x20 project_build//C/mios32/trunk/drivers/STM32F10x/v3.3.0/STM32F10x_StdPeriph_Driver/src/stm32f10x_rcc.o
 .text.RCC_LSICmd
                0x00000000        0xc project_build//C/mios32/trunk/drivers/STM32F10x/v3.3.0/STM32F10x_StdPeriph_Driver/src/stm32f10x_rcc.o
 .text.RCC_ClockSecuritySystemCmd
                0x00000000        0xc project_build//C/mios32/trunk/drivers/STM32F10x/v3.3.0/STM32F10x_StdPeriph_Driver/src/stm32f10x_rcc.o
 .text.RCC_MCOConfig
                0x00000000        0xc project_build//C/mios32/trunk/drivers/STM32F10x/v3.3.0/STM32F10x_StdPeriph_Driver/src/stm32f10x_rcc.o
 .text.RCC_ClearFlag
                0x00000000       0x10 project_build//C/mios32/trunk/drivers/STM32F10x/v3.3.0/STM32F10x_StdPeriph_Driver/src/stm32f10x_rcc.o
 .text.RCC_GetITStatus
                0x00000000       0x14 project_build//C/mios32/trunk/drivers/STM32F10x/v3.3.0/STM32F10x_StdPeriph_Driver/src/stm32f10x_rcc.o
 .text.RCC_ClearITPendingBit
                0x00000000        0xc project_build//C/mios32/trunk/drivers/STM32F10x/v3.3.0/STM32F10x_StdPeriph_Driver/src/stm32f10x_rcc.o
 .text          0x00000000        0x0 project_build//C/mios32/trunk/drivers/STM32F10x/v3.3.0/STM32F10x_StdPeriph_Driver/src/stm32f10x_rtc.o
 .data          0x00000000        0x0 project_build//C/mios32/trunk/drivers/STM32F10x/v3.3.0/STM32F10x_StdPeriph_Driver/src/stm32f10x_rtc.o
 .bss           0x00000000        0x0 project_build//C/mios32/trunk/drivers/STM32F10x/v3.3.0/STM32F10x_StdPeriph_Driver/src/stm32f10x_rtc.o
 .text.RTC_GetCounter
                0x00000000       0x14 project_build//C/mios32/trunk/drivers/STM32F10x/v3.3.0/STM32F10x_StdPeriph_Driver/src/stm32f10x_rtc.o
 .text.RTC_SetAlarm
                0x00000000       0x1c project_build//C/mios32/trunk/drivers/STM32F10x/v3.3.0/STM32F10x_StdPeriph_Driver/src/stm32f10x_rtc.o
 .text.RTC_GetDivider
                0x00000000       0x18 project_build//C/mios32/trunk/drivers/STM32F10x/v3.3.0/STM32F10x_StdPeriph_Driver/src/stm32f10x_rtc.o
 .text.RTC_GetFlagStatus
                0x00000000       0x14 project_build//C/mios32/trunk/drivers/STM32F10x/v3.3.0/STM32F10x_StdPeriph_Driver/src/stm32f10x_rtc.o
 .text.RTC_ClearFlag
                0x00000000       0x14 project_build//C/mios32/trunk/drivers/STM32F10x/v3.3.0/STM32F10x_StdPeriph_Driver/src/stm32f10x_rtc.o
 .text.RTC_GetITStatus
                0x00000000       0x24 project_build//C/mios32/trunk/drivers/STM32F10x/v3.3.0/STM32F10x_StdPeriph_Driver/src/stm32f10x_rtc.o
 .text.RTC_ClearITPendingBit
                0x00000000       0x14 project_build//C/mios32/trunk/drivers/STM32F10x/v3.3.0/STM32F10x_StdPeriph_Driver/src/stm32f10x_rtc.o
 .text          0x00000000        0x0 project_build//C/mios32/trunk/drivers/STM32F10x/v3.3.0/STM32F10x_StdPeriph_Driver/src/stm32f10x_bkp.o
 .data          0x00000000        0x0 project_build//C/mios32/trunk/drivers/STM32F10x/v3.3.0/STM32F10x_StdPeriph_Driver/src/stm32f10x_bkp.o
 .bss           0x00000000        0x0 project_build//C/mios32/trunk/drivers/STM32F10x/v3.3.0/STM32F10x_StdPeriph_Driver/src/stm32f10x_bkp.o
 .text.BKP_TamperPinLevelConfig
                0x00000000        0xc project_build//C/mios32/trunk/drivers/STM32F10x/v3.3.0/STM32F10x_StdPeriph_Driver/src/stm32f10x_bkp.o
 .text.BKP_TamperPinCmd
                0x00000000        0xc project_build//C/mios32/trunk/drivers/STM32F10x/v3.3.0/STM32F10x_StdPeriph_Driver/src/stm32f10x_bkp.o
 .text.BKP_ITConfig
                0x00000000        0xc project_build//C/mios32/trunk/drivers/STM32F10x/v3.3.0/STM32F10x_StdPeriph_Driver/src/stm32f10x_bkp.o
 .text.BKP_RTCOutputConfig
                0x00000000       0x18 project_build//C/mios32/trunk/drivers/STM32F10x/v3.3.0/STM32F10x_StdPeriph_Driver/src/stm32f10x_bkp.o
 .text.BKP_SetRTCCalibrationValue
                0x00000000       0x18 project_build//C/mios32/trunk/drivers/STM32F10x/v3.3.0/STM32F10x_StdPeriph_Driver/src/stm32f10x_bkp.o
 .text.BKP_WriteBackupRegister
                0x00000000       0x1c project_build//C/mios32/trunk/drivers/STM32F10x/v3.3.0/STM32F10x_StdPeriph_Driver/src/stm32f10x_bkp.o
 .text.BKP_ReadBackupRegister
                0x00000000       0x20 project_build//C/mios32/trunk/drivers/STM32F10x/v3.3.0/STM32F10x_StdPeriph_Driver/src/stm32f10x_bkp.o
 .text.BKP_GetFlagStatus
                0x00000000        0xc project_build//C/mios32/trunk/drivers/STM32F10x/v3.3.0/STM32F10x_StdPeriph_Driver/src/stm32f10x_bkp.o
 .text.BKP_ClearFlag
                0x00000000       0x14 project_build//C/mios32/trunk/drivers/STM32F10x/v3.3.0/STM32F10x_StdPeriph_Driver/src/stm32f10x_bkp.o
 .text.BKP_GetITStatus
                0x00000000        0xc project_build//C/mios32/trunk/drivers/STM32F10x/v3.3.0/STM32F10x_StdPeriph_Driver/src/stm32f10x_bkp.o
 .text.BKP_ClearITPendingBit
                0x00000000       0x14 project_build//C/mios32/trunk/drivers/STM32F10x/v3.3.0/STM32F10x_StdPeriph_Driver/src/stm32f10x_bkp.o
 .text          0x00000000        0x0 project_build//C/mios32/trunk/drivers/STM32F10x/v3.3.0/STM32F10x_StdPeriph_Driver/src/stm32f10x_pwr.o
 .data          0x00000000        0x0 project_build//C/mios32/trunk/drivers/STM32F10x/v3.3.0/STM32F10x_StdPeriph_Driver/src/stm32f10x_pwr.o
 .bss           0x00000000        0x0 project_build//C/mios32/trunk/drivers/STM32F10x/v3.3.0/STM32F10x_StdPeriph_Driver/src/stm32f10x_pwr.o
 .text.PWR_DeInit
                0x00000000       0x18 project_build//C/mios32/trunk/drivers/STM32F10x/v3.3.0/STM32F10x_StdPeriph_Driver/src/stm32f10x_pwr.o
 .text.PWR_PVDCmd
                0x00000000        0xc project_build//C/mios32/trunk/drivers/STM32F10x/v3.3.0/STM32F10x_StdPeriph_Driver/src/stm32f10x_pwr.o
 .text.PWR_PVDLevelConfig
                0x00000000       0x14 project_build//C/mios32/trunk/drivers/STM32F10x/v3.3.0/STM32F10x_StdPeriph_Driver/src/stm32f10x_pwr.o
 .text.PWR_WakeUpPinCmd
                0x00000000        0xc project_build//C/mios32/trunk/drivers/STM32F10x/v3.3.0/STM32F10x_StdPeriph_Driver/src/stm32f10x_pwr.o
 .text.PWR_EnterSTOPMode
                0x00000000       0x34 project_build//C/mios32/trunk/drivers/STM32F10x/v3.3.0/STM32F10x_StdPeriph_Driver/src/stm32f10x_pwr.o
 .text.PWR_EnterSTANDBYMode
                0x00000000       0x28 project_build//C/mios32/trunk/drivers/STM32F10x/v3.3.0/STM32F10x_StdPeriph_Driver/src/stm32f10x_pwr.o
 .text.PWR_GetFlagStatus
                0x00000000       0x14 project_build//C/mios32/trunk/drivers/STM32F10x/v3.3.0/STM32F10x_StdPeriph_Driver/src/stm32f10x_pwr.o
 .text.PWR_ClearFlag
                0x00000000       0x10 project_build//C/mios32/trunk/drivers/STM32F10x/v3.3.0/STM32F10x_StdPeriph_Driver/src/stm32f10x_pwr.o
 .text          0x00000000        0x0 project_build//C/mios32/trunk/drivers/STM32F10x/v3.3.0/STM32F10x_StdPeriph_Driver/src/stm32f10x_exti.o
 .data          0x00000000        0x0 project_build//C/mios32/trunk/drivers/STM32F10x/v3.3.0/STM32F10x_StdPeriph_Driver/src/stm32f10x_exti.o
 .bss           0x00000000        0x0 project_build//C/mios32/trunk/drivers/STM32F10x/v3.3.0/STM32F10x_StdPeriph_Driver/src/stm32f10x_exti.o
 .text.EXTI_DeInit
                0x00000000       0x1c project_build//C/mios32/trunk/drivers/STM32F10x/v3.3.0/STM32F10x_StdPeriph_Driver/src/stm32f10x_exti.o
 .text.EXTI_Init
                0x00000000       0x8c project_build//C/mios32/trunk/drivers/STM32F10x/v3.3.0/STM32F10x_StdPeriph_Driver/src/stm32f10x_exti.o
 .text.EXTI_StructInit
                0x00000000        0xe project_build//C/mios32/trunk/drivers/STM32F10x/v3.3.0/STM32F10x_StdPeriph_Driver/src/stm32f10x_exti.o
 .text.EXTI_GenerateSWInterrupt
                0x00000000       0x10 project_build//C/mios32/trunk/drivers/STM32F10x/v3.3.0/STM32F10x_StdPeriph_Driver/src/stm32f10x_exti.o
 .text.EXTI_GetFlagStatus
                0x00000000       0x14 project_build//C/mios32/trunk/drivers/STM32F10x/v3.3.0/STM32F10x_StdPeriph_Driver/src/stm32f10x_exti.o
 .text.EXTI_ClearFlag
                0x00000000        0xc project_build//C/mios32/trunk/drivers/STM32F10x/v3.3.0/STM32F10x_StdPeriph_Driver/src/stm32f10x_exti.o
 .text.EXTI_GetITStatus
                0x00000000       0x1c project_build//C/mios32/trunk/drivers/STM32F10x/v3.3.0/STM32F10x_StdPeriph_Driver/src/stm32f10x_exti.o
 .text.EXTI_ClearITPendingBit
                0x00000000        0xc project_build//C/mios32/trunk/drivers/STM32F10x/v3.3.0/STM32F10x_StdPeriph_Driver/src/stm32f10x_exti.o
 .text          0x00000000        0x0 project_build//C/mios32/trunk/drivers/STM32F10x/v3.3.0/STM32F10x_StdPeriph_Driver/src/misc.o
 .data          0x00000000        0x0 project_build//C/mios32/trunk/drivers/STM32F10x/v3.3.0/STM32F10x_StdPeriph_Driver/src/misc.o
 .bss           0x00000000        0x0 project_build//C/mios32/trunk/drivers/STM32F10x/v3.3.0/STM32F10x_StdPeriph_Driver/src/misc.o
 .text.NVIC_Init
                0x00000000       0x64 project_build//C/mios32/trunk/drivers/STM32F10x/v3.3.0/STM32F10x_StdPeriph_Driver/src/misc.o
 .text.NVIC_SystemLPConfig
                0x00000000       0x1c project_build//C/mios32/trunk/drivers/STM32F10x/v3.3.0/STM32F10x_StdPeriph_Driver/src/misc.o
 .text          0x00000000        0x0 project_build//C/mios32/trunk/drivers/STM32F10x/v3.3.0/CMSIS/CM3/CoreSupport/core_cm3.o
 .data          0x00000000        0x0 project_build//C/mios32/trunk/drivers/STM32F10x/v3.3.0/CMSIS/CM3/CoreSupport/core_cm3.o
 .bss           0x00000000        0x0 project_build//C/mios32/trunk/drivers/STM32F10x/v3.3.0/CMSIS/CM3/CoreSupport/core_cm3.o
 .text.__get_PSP
                0x00000000        0x8 project_build//C/mios32/trunk/drivers/STM32F10x/v3.3.0/CMSIS/CM3/CoreSupport/core_cm3.o
 .text.__set_PSP
                0x00000000        0x6 project_build//C/mios32/trunk/drivers/STM32F10x/v3.3.0/CMSIS/CM3/CoreSupport/core_cm3.o
 .text.__get_MSP
                0x00000000        0x8 project_build//C/mios32/trunk/drivers/STM32F10x/v3.3.0/CMSIS/CM3/CoreSupport/core_cm3.o
 .text.__set_MSP
                0x00000000        0x6 project_build//C/mios32/trunk/drivers/STM32F10x/v3.3.0/CMSIS/CM3/CoreSupport/core_cm3.o
 .text.__get_BASEPRI
                0x00000000        0x6 project_build//C/mios32/trunk/drivers/STM32F10x/v3.3.0/CMSIS/CM3/CoreSupport/core_cm3.o
 .text.__set_BASEPRI
                0x00000000        0x6 project_build//C/mios32/trunk/drivers/STM32F10x/v3.3.0/CMSIS/CM3/CoreSupport/core_cm3.o
 .text.__get_PRIMASK
                0x00000000        0x6 project_build//C/mios32/trunk/drivers/STM32F10x/v3.3.0/CMSIS/CM3/CoreSupport/core_cm3.o
 .text.__set_PRIMASK
                0x00000000        0x6 project_build//C/mios32/trunk/drivers/STM32F10x/v3.3.0/CMSIS/CM3/CoreSupport/core_cm3.o
 .text.__get_FAULTMASK
                0x00000000        0x6 project_build//C/mios32/trunk/drivers/STM32F10x/v3.3.0/CMSIS/CM3/CoreSupport/core_cm3.o
 .text.__set_FAULTMASK
                0x00000000        0x6 project_build//C/mios32/trunk/drivers/STM32F10x/v3.3.0/CMSIS/CM3/CoreSupport/core_cm3.o
 .text.__get_CONTROL
                0x00000000        0x6 project_build//C/mios32/trunk/drivers/STM32F10x/v3.3.0/CMSIS/CM3/CoreSupport/core_cm3.o
 .text.__set_CONTROL
                0x00000000        0x6 project_build//C/mios32/trunk/drivers/STM32F10x/v3.3.0/CMSIS/CM3/CoreSupport/core_cm3.o
 .text.__REV    0x00000000        0x4 project_build//C/mios32/trunk/drivers/STM32F10x/v3.3.0/CMSIS/CM3/CoreSupport/core_cm3.o
 .text.__REV16  0x00000000        0x4 project_build//C/mios32/trunk/drivers/STM32F10x/v3.3.0/CMSIS/CM3/CoreSupport/core_cm3.o
 .text.__REVSH  0x00000000        0x4 project_build//C/mios32/trunk/drivers/STM32F10x/v3.3.0/CMSIS/CM3/CoreSupport/core_cm3.o
 .text.__RBIT   0x00000000        0x6 project_build//C/mios32/trunk/drivers/STM32F10x/v3.3.0/CMSIS/CM3/CoreSupport/core_cm3.o
 .text.__LDREXB
                0x00000000        0x8 project_build//C/mios32/trunk/drivers/STM32F10x/v3.3.0/CMSIS/CM3/CoreSupport/core_cm3.o
 .text.__LDREXH
                0x00000000        0x8 project_build//C/mios32/trunk/drivers/STM32F10x/v3.3.0/CMSIS/CM3/CoreSupport/core_cm3.o
 .text.__LDREXW
                0x00000000        0x6 project_build//C/mios32/trunk/drivers/STM32F10x/v3.3.0/CMSIS/CM3/CoreSupport/core_cm3.o
 .text.__STREXB
                0x00000000        0x6 project_build//C/mios32/trunk/drivers/STM32F10x/v3.3.0/CMSIS/CM3/CoreSupport/core_cm3.o
 .text.__STREXH
                0x00000000        0x6 project_build//C/mios32/trunk/drivers/STM32F10x/v3.3.0/CMSIS/CM3/CoreSupport/core_cm3.o
 .text.__STREXW
                0x00000000        0x6 project_build//C/mios32/trunk/drivers/STM32F10x/v3.3.0/CMSIS/CM3/CoreSupport/core_cm3.o
 .text          0x00000000        0x0 project_build//C/mios32/trunk/drivers/STM32F10x/v3.3.0/STM32_USB-FS-Device_Driver/src/usb_core.o
 .data          0x00000000        0x0 project_build//C/mios32/trunk/drivers/STM32F10x/v3.3.0/STM32_USB-FS-Device_Driver/src/usb_core.o
 .bss           0x00000000        0x0 project_build//C/mios32/trunk/drivers/STM32F10x/v3.3.0/STM32_USB-FS-Device_Driver/src/usb_core.o
 .text          0x00000000        0x0 project_build//C/mios32/trunk/drivers/STM32F10x/v3.3.0/STM32_USB-FS-Device_Driver/src/usb_int.o
 .data          0x00000000        0x0 project_build//C/mios32/trunk/drivers/STM32F10x/v3.3.0/STM32_USB-FS-Device_Driver/src/usb_int.o
 .bss           0x00000000        0x0 project_build//C/mios32/trunk/drivers/STM32F10x/v3.3.0/STM32_USB-FS-Device_Driver/src/usb_int.o
 .text.CTR_HP   0x00000000       0x70 project_build//C/mios32/trunk/drivers/STM32F10x/v3.3.0/STM32_USB-FS-Device_Driver/src/usb_int.o
 .text          0x00000000        0x0 project_build//C/mios32/trunk/drivers/STM32F10x/v3.3.0/STM32_USB-FS-Device_Driver/src/usb_mem.o
 .data          0x00000000        0x0 project_build//C/mios32/trunk/drivers/STM32F10x/v3.3.0/STM32_USB-FS-Device_Driver/src/usb_mem.o
 .bss           0x00000000        0x0 project_build//C/mios32/trunk/drivers/STM32F10x/v3.3.0/STM32_USB-FS-Device_Driver/src/usb_mem.o
 .text          0x00000000        0x0 project_build//C/mios32/trunk/drivers/STM32F10x/v3.3.0/STM32_USB-FS-Device_Driver/src/usb_regs.o
 .data          0x00000000        0x0 project_build//C/mios32/trunk/drivers/STM32F10x/v3.3.0/STM32_USB-FS-Device_Driver/src/usb_regs.o
 .bss           0x00000000        0x0 project_build//C/mios32/trunk/drivers/STM32F10x/v3.3.0/STM32_USB-FS-Device_Driver/src/usb_regs.o
 .text.SetCNTR  0x00000000        0xc project_build//C/mios32/trunk/drivers/STM32F10x/v3.3.0/STM32_USB-FS-Device_Driver/src/usb_regs.o
 .text.GetCNTR  0x00000000        0xc project_build//C/mios32/trunk/drivers/STM32F10x/v3.3.0/STM32_USB-FS-Device_Driver/src/usb_regs.o
 .text.SetISTR  0x00000000        0xc project_build//C/mios32/trunk/drivers/STM32F10x/v3.3.0/STM32_USB-FS-Device_Driver/src/usb_regs.o
 .text.GetISTR  0x00000000        0xc project_build//C/mios32/trunk/drivers/STM32F10x/v3.3.0/STM32_USB-FS-Device_Driver/src/usb_regs.o
 .text.GetFNR   0x00000000        0xc project_build//C/mios32/trunk/drivers/STM32F10x/v3.3.0/STM32_USB-FS-Device_Driver/src/usb_regs.o
 .text.SetDADDR
                0x00000000        0xc project_build//C/mios32/trunk/drivers/STM32F10x/v3.3.0/STM32_USB-FS-Device_Driver/src/usb_regs.o
 .text.GetDADDR
                0x00000000        0xc project_build//C/mios32/trunk/drivers/STM32F10x/v3.3.0/STM32_USB-FS-Device_Driver/src/usb_regs.o
 .text.GetBTABLE
                0x00000000        0xc project_build//C/mios32/trunk/drivers/STM32F10x/v3.3.0/STM32_USB-FS-Device_Driver/src/usb_regs.o
 .text.SetENDPOINT
                0x00000000        0xe project_build//C/mios32/trunk/drivers/STM32F10x/v3.3.0/STM32_USB-FS-Device_Driver/src/usb_regs.o
 .text.GetENDPOINT
                0x00000000       0x10 project_build//C/mios32/trunk/drivers/STM32F10x/v3.3.0/STM32_USB-FS-Device_Driver/src/usb_regs.o
 .text.SetEPRxStatus
                0x00000000       0x38 project_build//C/mios32/trunk/drivers/STM32F10x/v3.3.0/STM32_USB-FS-Device_Driver/src/usb_regs.o
 .text.SetDouBleBuffEPStall
                0x00000000       0x24 project_build//C/mios32/trunk/drivers/STM32F10x/v3.3.0/STM32_USB-FS-Device_Driver/src/usb_regs.o
 .text.GetEPTxStatus
                0x00000000       0x12 project_build//C/mios32/trunk/drivers/STM32F10x/v3.3.0/STM32_USB-FS-Device_Driver/src/usb_regs.o
 .text.GetEPRxStatus
                0x00000000       0x12 project_build//C/mios32/trunk/drivers/STM32F10x/v3.3.0/STM32_USB-FS-Device_Driver/src/usb_regs.o
 .text.SetEP_KIND
                0x00000000       0x20 project_build//C/mios32/trunk/drivers/STM32F10x/v3.3.0/STM32_USB-FS-Device_Driver/src/usb_regs.o
 .text.ClearEP_KIND
                0x00000000       0x20 project_build//C/mios32/trunk/drivers/STM32F10x/v3.3.0/STM32_USB-FS-Device_Driver/src/usb_regs.o
 .text.Set_Status_Out
                0x00000000       0x20 project_build//C/mios32/trunk/drivers/STM32F10x/v3.3.0/STM32_USB-FS-Device_Driver/src/usb_regs.o
 .text.SetEPDoubleBuff
                0x00000000       0x20 project_build//C/mios32/trunk/drivers/STM32F10x/v3.3.0/STM32_USB-FS-Device_Driver/src/usb_regs.o
 .text.ClearEPDoubleBuff
                0x00000000       0x20 project_build//C/mios32/trunk/drivers/STM32F10x/v3.3.0/STM32_USB-FS-Device_Driver/src/usb_regs.o
 .text.GetTxStallStatus
                0x00000000       0x1a project_build//C/mios32/trunk/drivers/STM32F10x/v3.3.0/STM32_USB-FS-Device_Driver/src/usb_regs.o
 .text.GetRxStallStatus
                0x00000000       0x1c project_build//C/mios32/trunk/drivers/STM32F10x/v3.3.0/STM32_USB-FS-Device_Driver/src/usb_regs.o
 .text.ClearEP_CTR_RX
                0x00000000       0x18 project_build//C/mios32/trunk/drivers/STM32F10x/v3.3.0/STM32_USB-FS-Device_Driver/src/usb_regs.o
 .text.ClearEP_CTR_TX
                0x00000000       0x18 project_build//C/mios32/trunk/drivers/STM32F10x/v3.3.0/STM32_USB-FS-Device_Driver/src/usb_regs.o
 .text.ToggleDTOG_RX
                0x00000000       0x20 project_build//C/mios32/trunk/drivers/STM32F10x/v3.3.0/STM32_USB-FS-Device_Driver/src/usb_regs.o
 .text.ToggleDTOG_TX
                0x00000000       0x20 project_build//C/mios32/trunk/drivers/STM32F10x/v3.3.0/STM32_USB-FS-Device_Driver/src/usb_regs.o
 .text.SetEPAddress
                0x00000000       0x24 project_build//C/mios32/trunk/drivers/STM32F10x/v3.3.0/STM32_USB-FS-Device_Driver/src/usb_regs.o
 .text.GetEPAddress
                0x00000000       0x12 project_build//C/mios32/trunk/drivers/STM32F10x/v3.3.0/STM32_USB-FS-Device_Driver/src/usb_regs.o
 .text.SetEPCountRxReg
                0x00000000       0x28 project_build//C/mios32/trunk/drivers/STM32F10x/v3.3.0/STM32_USB-FS-Device_Driver/src/usb_regs.o
 .text.GetEPTxCount
                0x00000000       0x20 project_build//C/mios32/trunk/drivers/STM32F10x/v3.3.0/STM32_USB-FS-Device_Driver/src/usb_regs.o
 .text.SetEPDblBuffAddr
                0x00000000       0x40 project_build//C/mios32/trunk/drivers/STM32F10x/v3.3.0/STM32_USB-FS-Device_Driver/src/usb_regs.o
 .text.SetEPDblBuf0Addr
                0x00000000       0x20 project_build//C/mios32/trunk/drivers/STM32F10x/v3.3.0/STM32_USB-FS-Device_Driver/src/usb_regs.o
 .text.SetEPDblBuf1Addr
                0x00000000       0x20 project_build//C/mios32/trunk/drivers/STM32F10x/v3.3.0/STM32_USB-FS-Device_Driver/src/usb_regs.o
 .text.GetEPDblBuf0Addr
                0x00000000       0x1c project_build//C/mios32/trunk/drivers/STM32F10x/v3.3.0/STM32_USB-FS-Device_Driver/src/usb_regs.o
 .text.GetEPDblBuf1Addr
                0x00000000       0x1c project_build//C/mios32/trunk/drivers/STM32F10x/v3.3.0/STM32_USB-FS-Device_Driver/src/usb_regs.o
 .text.SetEPDblBuffCount
                0x00000000       0xa8 project_build//C/mios32/trunk/drivers/STM32F10x/v3.3.0/STM32_USB-FS-Device_Driver/src/usb_regs.o
 .text.SetEPDblBuf0Count
                0x00000000       0x5c project_build//C/mios32/trunk/drivers/STM32F10x/v3.3.0/STM32_USB-FS-Device_Driver/src/usb_regs.o
 .text.SetEPDblBuf1Count
                0x00000000       0x5c project_build//C/mios32/trunk/drivers/STM32F10x/v3.3.0/STM32_USB-FS-Device_Driver/src/usb_regs.o
 .text.GetEPDblBuf0Count
                0x00000000       0x20 project_build//C/mios32/trunk/drivers/STM32F10x/v3.3.0/STM32_USB-FS-Device_Driver/src/usb_regs.o
 .text.GetEPDblBuf1Count
                0x00000000       0x20 project_build//C/mios32/trunk/drivers/STM32F10x/v3.3.0/STM32_USB-FS-Device_Driver/src/usb_regs.o
 .text.GetEPDblBufDir
                0x00000000       0x44 project_build//C/mios32/trunk/drivers/STM32F10x/v3.3.0/STM32_USB-FS-Device_Driver/src/usb_regs.o
 .text.FreeUserBuffer
                0x00000000       0x46 project_build//C/mios32/trunk/drivers/STM32F10x/v3.3.0/STM32_USB-FS-Device_Driver/src/usb_regs.o
 .text.ToWord   0x00000000        0x6 project_build//C/mios32/trunk/drivers/STM32F10x/v3.3.0/STM32_USB-FS-Device_Driver/src/usb_regs.o
 .text          0x00000000        0x0 project_build//C/mios32/trunk/drivers/STM32F10x/v3.3.0/STM32_USB-FS-Device_Driver/src/otgd_fs_cal.o
 .data          0x00000000        0x0 project_build//C/mios32/trunk/drivers/STM32F10x/v3.3.0/STM32_USB-FS-Device_Driver/src/otgd_fs_cal.o
 .bss           0x00000000        0x0 project_build//C/mios32/trunk/drivers/STM32F10x/v3.3.0/STM32_USB-FS-Device_Driver/src/otgd_fs_cal.o
 .text          0x00000000        0x0 project_build//C/mios32/trunk/drivers/STM32F10x/v3.3.0/STM32_USB-FS-Device_Driver/src/otgd_fs_dev.o
 .data          0x00000000        0x0 project_build//C/mios32/trunk/drivers/STM32F10x/v3.3.0/STM32_USB-FS-Device_Driver/src/otgd_fs_dev.o
 .bss           0x00000000        0x0 project_build//C/mios32/trunk/drivers/STM32F10x/v3.3.0/STM32_USB-FS-Device_Driver/src/otgd_fs_dev.o
 .text          0x00000000        0x0 project_build//C/mios32/trunk/drivers/STM32F10x/v3.3.0/STM32_USB-FS-Device_Driver/src/otgd_fs_int.o
 .data          0x00000000        0x0 project_build//C/mios32/trunk/drivers/STM32F10x/v3.3.0/STM32_USB-FS-Device_Driver/src/otgd_fs_int.o
 .bss           0x00000000        0x0 project_build//C/mios32/trunk/drivers/STM32F10x/v3.3.0/STM32_USB-FS-Device_Driver/src/otgd_fs_int.o
 .text          0x00000000        0x0 project_build//C/mios32/trunk/drivers/STM32F10x/v3.3.0/STM32_USB-FS-Device_Driver/src/otgd_fs_pcd.o
 .data          0x00000000        0x0 project_build//C/mios32/trunk/drivers/STM32F10x/v3.3.0/STM32_USB-FS-Device_Driver/src/otgd_fs_pcd.o
 .bss           0x00000000        0x0 project_build//C/mios32/trunk/drivers/STM32F10x/v3.3.0/STM32_USB-FS-Device_Driver/src/otgd_fs_pcd.o
 .text          0x00000000        0x0 project_build//C/mios32/trunk/modules/app_lcd/clcd/app_lcd.o
 .data          0x00000000        0x0 project_build//C/mios32/trunk/modules/app_lcd/clcd/app_lcd.o
 .bss           0x00000000        0x0 project_build//C/mios32/trunk/modules/app_lcd/clcd/app_lcd.o
 .text.APP_LCD_SpecialCharInit
                0x00000000       0x40 project_build//C/mios32/trunk/modules/app_lcd/clcd/app_lcd.o
 .text.APP_LCD_BitmapPixelSet
                0x00000000       0x10 project_build//C/mios32/trunk/modules/app_lcd/clcd/app_lcd.o
 .text          0x00000000        0x0 project_build//C/mios32/trunk/programming_models/traditional/mini_cpp.o
 .data          0x00000000        0x0 project_build//C/mios32/trunk/programming_models/traditional/mini_cpp.o
 .bss           0x00000000        0x0 project_build//C/mios32/trunk/programming_models/traditional/mini_cpp.o
 .text._Znwj    0x00000000        0x8 project_build//C/mios32/trunk/programming_models/traditional/mini_cpp.o
 .text._ZdlPv   0x00000000        0x8 project_build//C/mios32/trunk/programming_models/traditional/mini_cpp.o
 .text.__aeabi_atexit
                0x00000000        0x4 project_build//C/mios32/trunk/programming_models/traditional/mini_cpp.o
 .text          0x00000000        0x0 project_build//C/mios32/trunk/programming_models/traditional/freertos_heap.o
 .data          0x00000000        0x0 project_build//C/mios32/trunk/programming_models/traditional/freertos_heap.o
 .bss           0x00000000        0x0 project_build//C/mios32/trunk/programming_models/traditional/freertos_heap.o
 .text.malloc   0x00000000        0x8 project_build//C/mios32/trunk/programming_models/traditional/freertos_heap.o
 .text.calloc   0x00000000        0xa project_build//C/mios32/trunk/programming_models/traditional/freertos_heap.o
 .text.free     0x00000000        0x8 project_build//C/mios32/trunk/programming_models/traditional/freertos_heap.o
 .text          0x00000000      0x424 c:/mios32_toolchain/bin/../lib/gcc/arm-none-eabi/4.5.1/thumb/v7m\libgcc.a(_arm_muldivdf3.o)
 .data          0x00000000        0x0 c:/mios32_toolchain/bin/../lib/gcc/arm-none-eabi/4.5.1/thumb/v7m\libgcc.a(_arm_muldivdf3.o)
 .bss           0x00000000        0x0 c:/mios32_toolchain/bin/../lib/gcc/arm-none-eabi/4.5.1/thumb/v7m\libgcc.a(_arm_muldivdf3.o)
 .text          0x00000000       0x50 c:/mios32_toolchain/bin/../lib/gcc/arm-none-eabi/4.5.1/thumb/v7m\libgcc.a(_arm_fixdfsi.o)
 .data          0x00000000        0x0 c:/mios32_toolchain/bin/../lib/gcc/arm-none-eabi/4.5.1/thumb/v7m\libgcc.a(_arm_fixdfsi.o)
 .bss           0x00000000        0x0 c:/mios32_toolchain/bin/../lib/gcc/arm-none-eabi/4.5.1/thumb/v7m\libgcc.a(_arm_fixdfsi.o)
 .text          0x00000000      0x2a0 c:/mios32_toolchain/bin/../lib/gcc/arm-none-eabi/4.5.1/thumb/v7m\libgcc.a(_arm_muldivsf3.o)
 .data          0x00000000        0x0 c:/mios32_toolchain/bin/../lib/gcc/arm-none-eabi/4.5.1/thumb/v7m\libgcc.a(_arm_muldivsf3.o)
 .bss           0x00000000        0x0 c:/mios32_toolchain/bin/../lib/gcc/arm-none-eabi/4.5.1/thumb/v7m\libgcc.a(_arm_muldivsf3.o)
 .text          0x00000000       0x4c c:/mios32_toolchain/bin/../lib/gcc/arm-none-eabi/4.5.1/thumb/v7m\libgcc.a(_arm_fixsfsi.o)
 .data          0x00000000        0x0 c:/mios32_toolchain/bin/../lib/gcc/arm-none-eabi/4.5.1/thumb/v7m\libgcc.a(_arm_fixsfsi.o)
 .bss           0x00000000        0x0 c:/mios32_toolchain/bin/../lib/gcc/arm-none-eabi/4.5.1/thumb/v7m\libgcc.a(_arm_fixsfsi.o)
 .text          0x00000000        0x0 c:/mios32_toolchain/bin/../lib/gcc/arm-none-eabi/4.5.1/../../../../arm-none-eabi/lib/thumb/v7m\libg.a(lib_a-init.o)
 .data          0x00000000        0x0 c:/mios32_toolchain/bin/../lib/gcc/arm-none-eabi/4.5.1/../../../../arm-none-eabi/lib/thumb/v7m\libg.a(lib_a-init.o)
 .bss           0x00000000        0x0 c:/mios32_toolchain/bin/../lib/gcc/arm-none-eabi/4.5.1/../../../../arm-none-eabi/lib/thumb/v7m\libg.a(lib_a-init.o)
 .text          0x00000000        0x0 c:/mios32_toolchain/bin/../lib/gcc/arm-none-eabi/4.5.1/../../../../arm-none-eabi/lib/thumb/v7m\libg.a(lib_a-memcpy.o)
 .data          0x00000000        0x0 c:/mios32_toolchain/bin/../lib/gcc/arm-none-eabi/4.5.1/../../../../arm-none-eabi/lib/thumb/v7m\libg.a(lib_a-memcpy.o)
 .bss           0x00000000        0x0 c:/mios32_toolchain/bin/../lib/gcc/arm-none-eabi/4.5.1/../../../../arm-none-eabi/lib/thumb/v7m\libg.a(lib_a-memcpy.o)
 .text          0x00000000        0x0 c:/mios32_toolchain/bin/../lib/gcc/arm-none-eabi/4.5.1/../../../../arm-none-eabi/lib/thumb/v7m\libg.a(lib_a-memmove.o)
 .data          0x00000000        0x0 c:/mios32_toolchain/bin/../lib/gcc/arm-none-eabi/4.5.1/../../../../arm-none-eabi/lib/thumb/v7m\libg.a(lib_a-memmove.o)
 .bss           0x00000000        0x0 c:/mios32_toolchain/bin/../lib/gcc/arm-none-eabi/4.5.1/../../../../arm-none-eabi/lib/thumb/v7m\libg.a(lib_a-memmove.o)
 .text.memmove  0x00000000       0x36 c:/mios32_toolchain/bin/../lib/gcc/arm-none-eabi/4.5.1/../../../../arm-none-eabi/lib/thumb/v7m\libg.a(lib_a-memmove.o)
 .text          0x00000000        0x0 c:/mios32_toolchain/bin/../lib/gcc/arm-none-eabi/4.5.1/../../../../arm-none-eabi/lib/thumb/v7m\libg.a(lib_a-memset.o)
 .data          0x00000000        0x0 c:/mios32_toolchain/bin/../lib/gcc/arm-none-eabi/4.5.1/../../../../arm-none-eabi/lib/thumb/v7m\libg.a(lib_a-memset.o)
 .bss           0x00000000        0x0 c:/mios32_toolchain/bin/../lib/gcc/arm-none-eabi/4.5.1/../../../../arm-none-eabi/lib/thumb/v7m\libg.a(lib_a-memset.o)
 .text          0x00000000        0x0 c:/mios32_toolchain/bin/../lib/gcc/arm-none-eabi/4.5.1/../../../../arm-none-eabi/lib/thumb/v7m\libg.a(lib_a-stpcpy.o)
 .data          0x00000000        0x0 c:/mios32_toolchain/bin/../lib/gcc/arm-none-eabi/4.5.1/../../../../arm-none-eabi/lib/thumb/v7m\libg.a(lib_a-stpcpy.o)
 .bss           0x00000000        0x0 c:/mios32_toolchain/bin/../lib/gcc/arm-none-eabi/4.5.1/../../../../arm-none-eabi/lib/thumb/v7m\libg.a(lib_a-stpcpy.o)
 .text.stpcpy   0x00000000       0x14 c:/mios32_toolchain/bin/../lib/gcc/arm-none-eabi/4.5.1/../../../../arm-none-eabi/lib/thumb/v7m\libg.a(lib_a-stpcpy.o)
 .text          0x00000000        0x0 c:/mios32_toolchain/bin/../lib/gcc/arm-none-eabi/4.5.1/../../../../arm-none-eabi/lib/thumb/v7m\libg.a(lib_a-strcpy.o)
 .data          0x00000000        0x0 c:/mios32_toolchain/bin/../lib/gcc/arm-none-eabi/4.5.1/../../../../arm-none-eabi/lib/thumb/v7m\libg.a(lib_a-strcpy.o)
 .bss           0x00000000        0x0 c:/mios32_toolchain/bin/../lib/gcc/arm-none-eabi/4.5.1/../../../../arm-none-eabi/lib/thumb/v7m\libg.a(lib_a-strcpy.o)
 .text          0x00000000        0x0 c:/mios32_toolchain/bin/../lib/gcc/arm-none-eabi/4.5.1/../../../../arm-none-eabi/lib/thumb/v7m\libg.a(lib_a-strlen.o)
 .data          0x00000000        0x0 c:/mios32_toolchain/bin/../lib/gcc/arm-none-eabi/4.5.1/../../../../arm-none-eabi/lib/thumb/v7m\libg.a(lib_a-strlen.o)
 .bss           0x00000000        0x0 c:/mios32_toolchain/bin/../lib/gcc/arm-none-eabi/4.5.1/../../../../arm-none-eabi/lib/thumb/v7m\libg.a(lib_a-strlen.o)
 .text          0x00000000        0x0 c:/mios32_toolchain/bin/../lib/gcc/arm-none-eabi/4.5.1/../../../../arm-none-eabi/lib/thumb/v7m\libg.a(lib_a-strncmp.o)
 .data          0x00000000        0x0 c:/mios32_toolchain/bin/../lib/gcc/arm-none-eabi/4.5.1/../../../../arm-none-eabi/lib/thumb/v7m\libg.a(lib_a-strncmp.o)
 .bss           0x00000000        0x0 c:/mios32_toolchain/bin/../lib/gcc/arm-none-eabi/4.5.1/../../../../arm-none-eabi/lib/thumb/v7m\libg.a(lib_a-strncmp.o)
 .text.strncmp  0x00000000       0x2e c:/mios32_toolchain/bin/../lib/gcc/arm-none-eabi/4.5.1/../../../../arm-none-eabi/lib/thumb/v7m\libg.a(lib_a-strncmp.o)
 .text          0x00000000        0x0 c:/mios32_toolchain/bin/../lib/gcc/arm-none-eabi/4.5.1/../../../../arm-none-eabi/lib/thumb/v7m\libg.a(lib_a-strncpy.o)
 .data          0x00000000        0x0 c:/mios32_toolchain/bin/../lib/gcc/arm-none-eabi/4.5.1/../../../../arm-none-eabi/lib/thumb/v7m\libg.a(lib_a-strncpy.o)
 .bss           0x00000000        0x0 c:/mios32_toolchain/bin/../lib/gcc/arm-none-eabi/4.5.1/../../../../arm-none-eabi/lib/thumb/v7m\libg.a(lib_a-strncpy.o)

Memory Configuration

Name             Origin             Length             Attributes
RAM              0x20000000         0x00010000         xrw
FLASH            0x08000000         0x00080000         xr
FLASHB1          0x00000000         0x00000000         xr
EXTMEMB0         0x00000000         0x00000000         xr
EXTMEMB1         0x00000000         0x00000000         xr
EXTMEMB2         0x00000000         0x00000000         xr
EXTMEMB3         0x00000000         0x00000000         xr
*default*        0x00000000         0xffffffff

Linker script and memory map

LOAD project_build/app.o
LOAD project_build//C/mios32/trunk/programming_models/traditional/main.o
LOAD project_build//C/mios32/trunk/FreeRTOS/Source/tasks.o
LOAD project_build//C/mios32/trunk/FreeRTOS/Source/list.o
LOAD project_build//C/mios32/trunk/FreeRTOS/Source/queue.o
LOAD project_build//C/mios32/trunk/FreeRTOS/Source/portable/GCC/ARM_CM3/port.o
LOAD project_build//C/mios32/trunk/FreeRTOS/Source/portable/MemMang/umm_malloc.o
LOAD project_build//C/mios32/trunk/programming_models/traditional/startup_stm32f10x_hd.o
LOAD project_build//C/mios32/trunk/mios32/common/mios32_srio.o
LOAD project_build//C/mios32/trunk/mios32/common/mios32_din.o
LOAD project_build//C/mios32/trunk/mios32/common/mios32_dout.o
LOAD project_build//C/mios32/trunk/mios32/common/mios32_enc.o
LOAD project_build//C/mios32/trunk/mios32/common/mios32_lcd.o
LOAD project_build//C/mios32/trunk/mios32/common/mios32_midi.o
LOAD project_build//C/mios32/trunk/mios32/common/mios32_osc.o
LOAD project_build//C/mios32/trunk/mios32/common/mios32_com.o
LOAD project_build//C/mios32/trunk/mios32/common/mios32_uart_midi.o
LOAD project_build//C/mios32/trunk/mios32/common/mios32_iic_midi.o
LOAD project_build//C/mios32/trunk/mios32/common/mios32_iic_bs.o
LOAD project_build//C/mios32/trunk/mios32/common/mios32_mf.o
LOAD project_build//C/mios32/trunk/mios32/common/mios32_sdcard.o
LOAD project_build//C/mios32/trunk/mios32/common/mios32_enc28j60.o
LOAD project_build//C/mios32/trunk/mios32/STM32F10x/mios32_bsl.o
LOAD project_build//C/mios32/trunk/mios32/STM32F10x/mios32_sys.o
LOAD project_build//C/mios32/trunk/mios32/STM32F10x/mios32_irq.o
LOAD project_build//C/mios32/trunk/mios32/STM32F10x/mios32_spi.o
LOAD project_build//C/mios32/trunk/mios32/STM32F10x/mios32_i2s.o
LOAD project_build//C/mios32/trunk/mios32/STM32F10x/mios32_board.o
LOAD project_build//C/mios32/trunk/mios32/STM32F10x/mios32_timer.o
LOAD project_build//C/mios32/trunk/mios32/STM32F10x/mios32_stopwatch.o
LOAD project_build//C/mios32/trunk/mios32/STM32F10x/mios32_delay.o
LOAD project_build//C/mios32/trunk/mios32/STM32F10x/mios32_ain.o
LOAD project_build//C/mios32/trunk/mios32/STM32F10x/mios32_usb.o
LOAD project_build//C/mios32/trunk/mios32/STM32F10x/mios32_usb_midi.o
LOAD project_build//C/mios32/trunk/mios32/STM32F10x/mios32_usb_com.o
LOAD project_build//C/mios32/trunk/mios32/STM32F10x/mios32_uart.o
LOAD project_build//C/mios32/trunk/mios32/STM32F10x/mios32_iic.o
LOAD project_build//C/mios32/trunk/mios32/common/printf-stdarg.o
LOAD project_build//C/mios32/trunk/drivers/STM32F10x/v3.3.0/STM32F10x_StdPeriph_Driver/src/stm32f10x_gpio.o
LOAD project_build//C/mios32/trunk/drivers/STM32F10x/v3.3.0/STM32F10x_StdPeriph_Driver/src/stm32f10x_flash.o
LOAD project_build//C/mios32/trunk/drivers/STM32F10x/v3.3.0/STM32F10x_StdPeriph_Driver/src/stm32f10x_adc.o
LOAD project_build//C/mios32/trunk/drivers/STM32F10x/v3.3.0/STM32F10x_StdPeriph_Driver/src/stm32f10x_dac.o
LOAD project_build//C/mios32/trunk/drivers/STM32F10x/v3.3.0/STM32F10x_StdPeriph_Driver/src/stm32f10x_spi.o
LOAD project_build//C/mios32/trunk/drivers/STM32F10x/v3.3.0/STM32F10x_StdPeriph_Driver/src/stm32f10x_usart.o
LOAD project_build//C/mios32/trunk/drivers/STM32F10x/v3.3.0/STM32F10x_StdPeriph_Driver/src/stm32f10x_i2c.o
LOAD project_build//C/mios32/trunk/drivers/STM32F10x/v3.3.0/STM32F10x_StdPeriph_Driver/src/stm32f10x_dma.o
LOAD project_build//C/mios32/trunk/drivers/STM32F10x/v3.3.0/STM32F10x_StdPeriph_Driver/src/stm32f10x_tim.o
LOAD project_build//C/mios32/trunk/drivers/STM32F10x/v3.3.0/STM32F10x_StdPeriph_Driver/src/stm32f10x_rcc.o
LOAD project_build//C/mios32/trunk/drivers/STM32F10x/v3.3.0/STM32F10x_StdPeriph_Driver/src/stm32f10x_rtc.o
LOAD project_build//C/mios32/trunk/drivers/STM32F10x/v3.3.0/STM32F10x_StdPeriph_Driver/src/stm32f10x_bkp.o
LOAD project_build//C/mios32/trunk/drivers/STM32F10x/v3.3.0/STM32F10x_StdPeriph_Driver/src/stm32f10x_pwr.o
LOAD project_build//C/mios32/trunk/drivers/STM32F10x/v3.3.0/STM32F10x_StdPeriph_Driver/src/stm32f10x_exti.o
LOAD project_build//C/mios32/trunk/drivers/STM32F10x/v3.3.0/STM32F10x_StdPeriph_Driver/src/misc.o
LOAD project_build//C/mios32/trunk/drivers/STM32F10x/v3.3.0/CMSIS/CM3/CoreSupport/core_cm3.o
LOAD project_build//C/mios32/trunk/drivers/STM32F10x/v3.3.0/STM32_USB-FS-Device_Driver/src/usb_core.o
LOAD project_build//C/mios32/trunk/drivers/STM32F10x/v3.3.0/STM32_USB-FS-Device_Driver/src/usb_int.o
LOAD project_build//C/mios32/trunk/drivers/STM32F10x/v3.3.0/STM32_USB-FS-Device_Driver/src/usb_mem.o
LOAD project_build//C/mios32/trunk/drivers/STM32F10x/v3.3.0/STM32_USB-FS-Device_Driver/src/usb_regs.o
LOAD project_build//C/mios32/trunk/drivers/STM32F10x/v3.3.0/STM32_USB-FS-Device_Driver/src/otgd_fs_cal.o
LOAD project_build//C/mios32/trunk/drivers/STM32F10x/v3.3.0/STM32_USB-FS-Device_Driver/src/otgd_fs_dev.o
LOAD project_build//C/mios32/trunk/drivers/STM32F10x/v3.3.0/STM32_USB-FS-Device_Driver/src/otgd_fs_int.o
LOAD project_build//C/mios32/trunk/drivers/STM32F10x/v3.3.0/STM32_USB-FS-Device_Driver/src/otgd_fs_pcd.o
LOAD project_build//C/mios32/trunk/modules/app_lcd/clcd/app_lcd.o
LOAD project_build//C/mios32/trunk/programming_models/traditional/mini_cpp.o
LOAD project_build//C/mios32/trunk/programming_models/traditional/freertos_heap.o
LOAD c:/mios32_toolchain/bin/../lib/gcc/arm-none-eabi/4.5.1/../../../../arm-none-eabi/lib/thumb/v7m\libstdc++.a
START GROUP
LOAD c:/mios32_toolchain/bin/../lib/gcc/arm-none-eabi/4.5.1/thumb/v7m\libgcc.a
LOAD c:/mios32_toolchain/bin/../lib/gcc/arm-none-eabi/4.5.1/../../../../arm-none-eabi/lib/thumb/v7m\libg.a
LOAD c:/mios32_toolchain/bin/../lib/gcc/arm-none-eabi/4.5.1/../../../../arm-none-eabi/lib/thumb/v7m\libc.a
END GROUP
                0x20010000                _estack = 0x20010000
                0x00000080                __Stack_Size = 0x80
                0x00000080                PROVIDE (_Stack_Size, __Stack_Size)
                0x2000ff80                __Stack_Init = (_estack - __Stack_Size)
                0x2000ff80                PROVIDE (_Stack_Init, __Stack_Init)
                0x00000100                _Minimum_Stack_Size = 0x100
                0x42000000                PERIPH_BB_BASE = 0x42000000
                0x22000000                SRAM_BB_BASE = 0x22000000
                0x20000000                SRAM_BASE = 0x20000000
                0x40000000                PERIPH_BASE = 0x40000000
                0x40022000                PROVIDE (FLASH_BASE, 0x40022000)
                0x1ffff800                PROVIDE (OB_BASE, 0x1ffff800)
                0x40000000                APB1PERIPH_BASE = PERIPH_BASE
                0x40010000                APB2PERIPH_BASE = (PERIPH_BASE + 0x10000)
                0x40020000                AHBPERIPH_BASE = (PERIPH_BASE + 0x20000)
                0x40000000                PROVIDE (TIM2, (APB1PERIPH_BASE + 0x0))
                0x40000400                PROVIDE (TIM3, (APB1PERIPH_BASE + 0x400))
                0x40000800                PROVIDE (TIM4, (APB1PERIPH_BASE + 0x800))
                0x40002800                PROVIDE (RTC, (APB1PERIPH_BASE + 0x2800))
                0x40002c00                PROVIDE (WWDG, (APB1PERIPH_BASE + 0x2c00))
                0x40003000                PROVIDE (IWDG, (APB1PERIPH_BASE + 0x3000))
                0x40003800                PROVIDE (SPI2, (APB1PERIPH_BASE + 0x3800))
                0x40004400                PROVIDE (USART2, (APB1PERIPH_BASE + 0x4400))
                0x40004800                PROVIDE (USART3, (APB1PERIPH_BASE + 0x4800))
                0x40005400                PROVIDE (I2C1, (APB1PERIPH_BASE + 0x5400))
                0x40005800                PROVIDE (I2C2, (APB1PERIPH_BASE + 0x5800))
                0x40006400                PROVIDE (CAN, (APB1PERIPH_BASE + 0x6400))
                0x40006c00                PROVIDE (BKP, (APB1PERIPH_BASE + 0x6c00))
                0x40007000                PROVIDE (PWR, (APB1PERIPH_BASE + 0x7000))
                0x40010000                PROVIDE (AFIO, (APB2PERIPH_BASE + 0x0))
                0x40010400                PROVIDE (EXTI, (APB2PERIPH_BASE + 0x400))
                0x40010800                PROVIDE (GPIOA, (APB2PERIPH_BASE + 0x800))
                0x40010c00                PROVIDE (GPIOB, (APB2PERIPH_BASE + 0xc00))
                0x40011000                PROVIDE (GPIOC, (APB2PERIPH_BASE + 0x1000))
                0x40011400                PROVIDE (GPIOD, (APB2PERIPH_BASE + 0x1400))
                0x40011800                PROVIDE (GPIOE, (APB2PERIPH_BASE + 0x1800))
                0x40012400                PROVIDE (ADC1, (APB2PERIPH_BASE + 0x2400))
                0x40012800                PROVIDE (ADC2, (APB2PERIPH_BASE + 0x2800))
                0x40012c00                PROVIDE (TIM1, (APB2PERIPH_BASE + 0x2c00))
                0x40013000                PROVIDE (SPI1, (APB2PERIPH_BASE + 0x3000))
                0x40013800                PROVIDE (USART1, (APB2PERIPH_BASE + 0x3800))
                0x40020000                PROVIDE (DMA, (AHBPERIPH_BASE + 0x0))
                0x40020008                PROVIDE (DMA_Channel1, (AHBPERIPH_BASE + 0x8))
                0x4002001c                PROVIDE (DMA_Channel2, (AHBPERIPH_BASE + 0x1c))
                0x40020030                PROVIDE (DMA_Channel3, (AHBPERIPH_BASE + 0x30))
                0x40020044                PROVIDE (DMA_Channel4, (AHBPERIPH_BASE + 0x44))
                0x40020058                PROVIDE (DMA_Channel5, (AHBPERIPH_BASE + 0x58))
                0x4002006c                PROVIDE (DMA_Channel6, (AHBPERIPH_BASE + 0x6c))
                0x40020080                PROVIDE (DMA_Channel7, (AHBPERIPH_BASE + 0x80))
                0x40021000                PROVIDE (RCC, (AHBPERIPH_BASE + 0x1000))
                0xe000e000                SCS_BASE = 0xe000e000
                0xe000e010                PROVIDE (SysTick, (SCS_BASE + 0x10))
                0xe000e100                PROVIDE (NVIC, (SCS_BASE + 0x100))
                0xe000ed00                PROVIDE (SCB, (SCS_BASE + 0xd00))

.mios32_bsl     0x08000000     0x4000
                0x08000000                . = ALIGN (0x4)
 *(.mios32_bsl)
 .mios32_bsl    0x08000000     0x4000 project_build//C/mios32/trunk/mios32/STM32F10x/mios32_bsl.o
                0x08000000                mios32_bsl_image
                0x08004000                . = ALIGN (0x4)

.isr_vector     0x08004000      0x1e4
                0x08004000                _mios32_sys_isr_vector = .
                0x08004000                . = ALIGN (0x4)
 *(.isr_vector)
 .isr_vector    0x08004000      0x1e4 project_build//C/mios32/trunk/programming_models/traditional/startup_stm32f10x_hd.o
                0x08004000                g_pfnVectors
                0x080041e4                . = ALIGN (0x4)
                0x08004000                PROVIDE (mios32_sys_isr_vector, _mios32_sys_isr_vector)

.flashtext      0x080041e4        0x0
                0x080041e4                . = ALIGN (0x4)
 *(.flashtext)
                0x080041e4                . = ALIGN (0x4)

.text           0x080041e4     0x62a4
                0x080041e4                . = ALIGN (0x4)
 CREATE_OBJECT_SYMBOLS
 *(.text .text.* .gnu.linkonce.t.*)
 .text.APP_Init
                0x080041e4       0xd4 project_build/app.o
                0x080041e4                APP_Init
 .text.APP_Background
                0x080042b8       0x20 project_build/app.o
                0x080042b8                APP_Background
 .text.APP_MIDI_NotifyPackage
                0x080042d8        0x2 project_build/app.o
                0x080042d8                APP_MIDI_NotifyPackage
 .text.APP_DIN_NotifyToggle
                0x080042da        0x2 project_build/app.o
                0x080042da                APP_DIN_NotifyToggle
 .text.APP_ENC_NotifyChange
                0x080042dc        0x2 project_build/app.o
                0x080042dc                APP_ENC_NotifyChange
 *fill*         0x080042de        0x2 00
 .text.APP_AIN_NotifyChange
                0x080042e0       0x20 project_build/app.o
                0x080042e0                APP_AIN_NotifyChange
 .text.BUTTON_NotifyToggle
                0x08004300      0x170 project_build/app.o
                0x08004300                BUTTON_NotifyToggle
 .text.TASK_MatrixScan
                0x08004470      0x104 project_build/app.o
 .text.TASK_MIDI_Hooks
                0x08004574       0x34 project_build//C/mios32/trunk/programming_models/traditional/main.o
 .text.TASK_Hooks
                0x080045a8       0x48 project_build//C/mios32/trunk/programming_models/traditional/main.o
 .text.main     0x080045f0       0xc8 project_build//C/mios32/trunk/programming_models/traditional/main.o
                0x080045f0                main
 .text.vApplicationTickHook
                0x080046b8        0x2 project_build//C/mios32/trunk/programming_models/traditional/main.o
                0x080046b8                vApplicationTickHook
 .text.vApplicationIdleHook
                0x080046ba        0x8 project_build//C/mios32/trunk/programming_models/traditional/main.o
                0x080046ba                vApplicationIdleHook
 *fill*         0x080046c2        0x2 00
 .text._abort   0x080046c4       0x44 project_build//C/mios32/trunk/programming_models/traditional/main.o
                0x080046c4                _abort
 .text.HardFault_Handler_c
                0x08004708      0x12c project_build//C/mios32/trunk/programming_models/traditional/main.o
                0x08004708                HardFault_Handler_c
 .text.HardFault_Handler
                0x08004834       0x14 project_build//C/mios32/trunk/programming_models/traditional/main.o
                0x08004834                HardFault_Handler
 .text.xTaskGenericCreate
                0x08004848      0x19c project_build//C/mios32/trunk/FreeRTOS/Source/tasks.o
                0x08004848                xTaskGenericCreate
 .text.vTaskStartScheduler
                0x080049e4       0x48 project_build//C/mios32/trunk/FreeRTOS/Source/tasks.o
                0x080049e4                vTaskStartScheduler
 .text.vTaskSuspendAll
                0x08004a2c       0x10 project_build//C/mios32/trunk/FreeRTOS/Source/tasks.o
                0x08004a2c                vTaskSuspendAll
 .text.xTaskGetTickCount
                0x08004a3c       0x18 project_build//C/mios32/trunk/FreeRTOS/Source/tasks.o
                0x08004a3c                xTaskGetTickCount
 .text.vTaskIncrementTick
                0x08004a54       0xbc project_build//C/mios32/trunk/FreeRTOS/Source/tasks.o
                0x08004a54                vTaskIncrementTick
 .text.xTaskResumeAll
                0x08004b10       0xc8 project_build//C/mios32/trunk/FreeRTOS/Source/tasks.o
                0x08004b10                xTaskResumeAll
 .text.prvIdleTask
                0x08004bd8       0x68 project_build//C/mios32/trunk/FreeRTOS/Source/tasks.o
 .text.vTaskDelay
                0x08004c40       0x50 project_build//C/mios32/trunk/FreeRTOS/Source/tasks.o
                0x08004c40                vTaskDelay
 .text.vTaskDelayUntil
                0x08004c90       0x78 project_build//C/mios32/trunk/FreeRTOS/Source/tasks.o
                0x08004c90                vTaskDelayUntil
 .text.vTaskSwitchContext
                0x08004d08       0x78 project_build//C/mios32/trunk/FreeRTOS/Source/tasks.o
                0x08004d08                vTaskSwitchContext
 .text.vListInitialise
                0x08004d80       0x16 project_build//C/mios32/trunk/FreeRTOS/Source/list.o
                0x08004d80                vListInitialise
 .text.vListInitialiseItem
                0x08004d96        0x6 project_build//C/mios32/trunk/FreeRTOS/Source/list.o
                0x08004d96                vListInitialiseItem
 .text.vListInsertEnd
                0x08004d9c       0x1a project_build//C/mios32/trunk/FreeRTOS/Source/list.o
                0x08004d9c                vListInsertEnd
 .text.vListInsert
                0x08004db6       0x34 project_build//C/mios32/trunk/FreeRTOS/Source/list.o
                0x08004db6                vListInsert
 .text.vListRemove
                0x08004dea       0x20 project_build//C/mios32/trunk/FreeRTOS/Source/list.o
                0x08004dea                vListRemove
 .text.pxPortInitialiseStack
                0x08004e0a       0x20 project_build//C/mios32/trunk/FreeRTOS/Source/portable/GCC/ARM_CM3/port.o
                0x08004e0a                pxPortInitialiseStack
 *fill*         0x08004e2a        0x2 00
 .text.vPortSVCHandler
                0x08004e2c       0x20 project_build//C/mios32/trunk/FreeRTOS/Source/portable/GCC/ARM_CM3/port.o
                0x08004e2c                vPortSVCHandler
 .text.vPortStartFirstTask
                0x08004e4c       0x10 project_build//C/mios32/trunk/FreeRTOS/Source/portable/GCC/ARM_CM3/port.o
                0x08004e4c                vPortStartFirstTask
 .text.xPortStartScheduler
                0x08004e5c       0x40 project_build//C/mios32/trunk/FreeRTOS/Source/portable/GCC/ARM_CM3/port.o
                0x08004e5c                xPortStartScheduler
 .text.vPortYieldFromISR
                0x08004e9c       0x10 project_build//C/mios32/trunk/FreeRTOS/Source/portable/GCC/ARM_CM3/port.o
                0x08004e9c                vPortYieldFromISR
 .text.vPortEnterCritical
                0x08004eac       0x18 project_build//C/mios32/trunk/FreeRTOS/Source/portable/GCC/ARM_CM3/port.o
                0x08004eac                vPortEnterCritical
 .text.vPortExitCritical
                0x08004ec4       0x18 project_build//C/mios32/trunk/FreeRTOS/Source/portable/GCC/ARM_CM3/port.o
                0x08004ec4                vPortExitCritical
 .text.xPortPendSVHandler
                0x08004edc       0x3c project_build//C/mios32/trunk/FreeRTOS/Source/portable/GCC/ARM_CM3/port.o
                0x08004edc                xPortPendSVHandler
 .text.xPortSysTickHandler
                0x08004f18       0x24 project_build//C/mios32/trunk/FreeRTOS/Source/portable/GCC/ARM_CM3/port.o
                0x08004f18                xPortSysTickHandler
 .text.umm_make_new_block
                0x08004f3c       0x3c project_build//C/mios32/trunk/FreeRTOS/Source/portable/MemMang/umm_malloc.o
 .text.umm_disconnect_from_free_list
                0x08004f78       0x34 project_build//C/mios32/trunk/FreeRTOS/Source/portable/MemMang/umm_malloc.o
 .text.umm_assimilate_up
                0x08004fac       0x40 project_build//C/mios32/trunk/FreeRTOS/Source/portable/MemMang/umm_malloc.o
 .text.vPortFree
                0x08004fec       0x6c project_build//C/mios32/trunk/FreeRTOS/Source/portable/MemMang/umm_malloc.o
                0x08004fec                vPortFree
 .text.pvPortMalloc
                0x08005058      0x114 project_build//C/mios32/trunk/FreeRTOS/Source/portable/MemMang/umm_malloc.o
                0x08005058                pvPortMalloc
 .text.Reset_Handler
                0x0800516c       0x48 project_build//C/mios32/trunk/programming_models/traditional/startup_stm32f10x_hd.o
                0x0800516c                Reset_Handler
 .text._init    0x080051b4        0x2 project_build//C/mios32/trunk/programming_models/traditional/startup_stm32f10x_hd.o
                0x080051b4                _init
 .text.Default_Handler
                0x080051b6        0x2 project_build//C/mios32/trunk/programming_models/traditional/startup_stm32f10x_hd.o
                0x080051b6                EXTI2_IRQHandler
                0x080051b6                TIM8_TRG_COM_IRQHandler
                0x080051b6                TIM8_CC_IRQHandler
                0x080051b6                DebugMon_Handler
                0x080051b6                TIM1_CC_IRQHandler
                0x080051b6                TIM6_IRQHandler
                0x080051b6                SysTick_Handler
                0x080051b6                PVD_IRQHandler
                0x080051b6                SDIO_IRQHandler
                0x080051b6                PendSV_Handler
                0x080051b6                NMI_Handler
                0x080051b6                EXTI3_IRQHandler
                0x080051b6                EXTI0_IRQHandler
                0x080051b6                UsageFault_Handler
                0x080051b6                ADC1_2_IRQHandler
                0x080051b6                SPI1_IRQHandler
                0x080051b6                TAMPER_IRQHandler
                0x080051b6                TIM8_UP_IRQHandler
                0x080051b6                DMA2_Channel2_IRQHandler
                0x080051b6                RTC_IRQHandler
                0x080051b6                DMA1_Channel7_IRQHandler
                0x080051b6                CAN1_RX1_IRQHandler
                0x080051b6                UART5_IRQHandler
                0x080051b6                ADC3_IRQHandler
                0x080051b6                TIM4_IRQHandler
                0x080051b6                DMA2_Channel1_IRQHandler
                0x080051b6                I2C1_EV_IRQHandler
                0x080051b6                DMA1_Channel6_IRQHandler
                0x080051b6                UART4_IRQHandler
                0x080051b6                DMA2_Channel4_IRQHandler
                0x080051b6                RCC_IRQHandler
                0x080051b6                TIM1_TRG_COM_IRQHandler
                0x080051b6                Default_Handler
                0x080051b6                EXTI15_10_IRQHandler
                0x080051b6                TIM7_IRQHandler
                0x080051b6                EXTI9_5_IRQHandler
                0x080051b6                SPI2_IRQHandler
                0x080051b6                MemManage_Handler
                0x080051b6                SVC_Handler
                0x080051b6                DMA2_Channel5_IRQHandler
                0x080051b6                DMA1_Channel5_IRQHandler
                0x080051b6                EXTI4_IRQHandler
                0x080051b6                USB_HP_CAN1_TX_IRQHandler
                0x080051b6                DMA1_Channel3_IRQHandler
                0x080051b6                FSMC_IRQHandler
                0x080051b6                TIM1_UP_IRQHandler
                0x080051b6                WWDG_IRQHandler
                0x080051b6                TIM1_BRK_IRQHandler
                0x080051b6                EXTI1_IRQHandler
                0x080051b6                RTCAlarm_IRQHandler
                0x080051b6                TIM8_BRK_IRQHandler
                0x080051b6                CAN1_SCE_IRQHandler
                0x080051b6                FLASH_IRQHandler
                0x080051b6                BusFault_Handler
                0x080051b6                SPI3_IRQHandler
                0x080051b6                I2C1_ER_IRQHandler
                0x080051b6                USBWakeUp_IRQHandler
                0x080051b6                DMA2_Channel3_IRQHandler
 .text.MIOS32_SRIO_Init
                0x080051b8       0x80 project_build//C/mios32/trunk/mios32/common/mios32_srio.o
                0x080051b8                MIOS32_SRIO_Init
 .text.MIOS32_SRIO_DebounceStart
                0x08005238       0x14 project_build//C/mios32/trunk/mios32/common/mios32_srio.o
                0x08005238                MIOS32_SRIO_DebounceStart
 .text.MIOS32_DIN_Init
                0x0800524c       0x2c project_build//C/mios32/trunk/mios32/common/mios32_din.o
                0x0800524c                MIOS32_DIN_Init
 .text.MIOS32_DIN_SRChangedGetAndClear
                0x08005278       0x30 project_build//C/mios32/trunk/mios32/common/mios32_din.o
                0x08005278                MIOS32_DIN_SRChangedGetAndClear
 .text.MIOS32_DIN_Handler
                0x080052a8       0x50 project_build//C/mios32/trunk/mios32/common/mios32_din.o
                0x080052a8                MIOS32_DIN_Handler
 .text.MIOS32_DOUT_Init
                0x080052f8       0x1c project_build//C/mios32/trunk/mios32/common/mios32_dout.o
                0x080052f8                MIOS32_DOUT_Init
 .text.MIOS32_ENC_Init
                0x08005314       0x5c project_build//C/mios32/trunk/mios32/common/mios32_enc.o
                0x08005314                MIOS32_ENC_Init
 .text.MIOS32_ENC_Handler
                0x08005370       0x40 project_build//C/mios32/trunk/mios32/common/mios32_enc.o
                0x08005370                MIOS32_ENC_Handler
 .text.MIOS32_LCD_DeviceSet
                0x080053b0        0xc project_build//C/mios32/trunk/mios32/common/mios32_lcd.o
                0x080053b0                MIOS32_LCD_DeviceSet
 .text.MIOS32_LCD_CursorSet
                0x080053bc       0x44 project_build//C/mios32/trunk/mios32/common/mios32_lcd.o
                0x080053bc                MIOS32_LCD_CursorSet
 .text.MIOS32_LCD_GCursorSet
                0x08005400       0x18 project_build//C/mios32/trunk/mios32/common/mios32_lcd.o
                0x08005400                MIOS32_LCD_GCursorSet
 .text.MIOS32_LCD_CursorMapSet
                0x08005418       0x18 project_build//C/mios32/trunk/mios32/common/mios32_lcd.o
                0x08005418                MIOS32_LCD_CursorMapSet
 .text.MIOS32_LCD_Init
                0x08005430       0x50 project_build//C/mios32/trunk/mios32/common/mios32_lcd.o
                0x08005430                MIOS32_LCD_Init
 .text.MIOS32_LCD_Clear
                0x08005480        0x8 project_build//C/mios32/trunk/mios32/common/mios32_lcd.o
                0x08005480                MIOS32_LCD_Clear
 .text.MIOS32_LCD_PrintChar
                0x08005488       0x5c project_build//C/mios32/trunk/mios32/common/mios32_lcd.o
                0x08005488                MIOS32_LCD_PrintChar
 .text.MIOS32_LCD_PrintString
                0x080054e4       0x1a project_build//C/mios32/trunk/mios32/common/mios32_lcd.o
                0x080054e4                MIOS32_LCD_PrintString
 *fill*         0x080054fe        0x2 00
 .text.MIOS32_LCD_PrintBootMessage
                0x08005500       0x40 project_build//C/mios32/trunk/mios32/common/mios32_lcd.o
                0x08005500                MIOS32_LCD_PrintBootMessage
 .text.MIOS32_LCD_PrintFormattedString
                0x08005540       0x26 project_build//C/mios32/trunk/mios32/common/mios32_lcd.o
                0x08005540                MIOS32_LCD_PrintFormattedString
 .text.MIOS32_LCD_BColourSet
                0x08005566        0x8 project_build//C/mios32/trunk/mios32/common/mios32_lcd.o
                0x08005566                MIOS32_LCD_BColourSet
 .text.MIOS32_LCD_FColourSet
                0x0800556e        0x8 project_build//C/mios32/trunk/mios32/common/mios32_lcd.o
                0x0800556e                MIOS32_LCD_FColourSet
 *fill*         0x08005576        0x2 00
 .text.MIOS32_MIDI_Init
                0x08005578       0x98 project_build//C/mios32/trunk/mios32/common/mios32_midi.o
                0x08005578                MIOS32_MIDI_Init
 .text.MIOS32_MIDI_SendPackage
                0x08005610       0x78 project_build//C/mios32/trunk/mios32/common/mios32_midi.o
                0x08005610                MIOS32_MIDI_SendPackage
 .text.MIOS32_MIDI_SendEvent
                0x08005688       0x22 project_build//C/mios32/trunk/mios32/common/mios32_midi.o
                0x08005688                MIOS32_MIDI_SendEvent
 .text.MIOS32_MIDI_SendNoteOn
                0x080056aa        0xc project_build//C/mios32/trunk/mios32/common/mios32_midi.o
                0x080056aa                MIOS32_MIDI_SendNoteOn
 .text.MIOS32_MIDI_SendCC
                0x080056b6        0xc project_build//C/mios32/trunk/mios32/common/mios32_midi.o
                0x080056b6                MIOS32_MIDI_SendCC
 .text.MIOS32_MIDI_SendSysEx
                0x080056c2       0xa2 project_build//C/mios32/trunk/mios32/common/mios32_midi.o
                0x080056c2                MIOS32_MIDI_SendSysEx
 .text.MIOS32_MIDI_SYSEX_SendAckStr
                0x08005764       0x60 project_build//C/mios32/trunk/mios32/common/mios32_midi.o
 .text.MIOS32_MIDI_SYSEX_SendAck
                0x080057c4       0x48 project_build//C/mios32/trunk/mios32/common/mios32_midi.o
 .text.MIOS32_MIDI_SendDebugMessage
                0x0800580c       0xa4 project_build//C/mios32/trunk/mios32/common/mios32_midi.o
                0x0800580c                MIOS32_MIDI_SendDebugMessage
 .text.MIOS32_MIDI_SYSEX_Cmd
                0x080058b0      0x1ac project_build//C/mios32/trunk/mios32/common/mios32_midi.o
 .text.MIOS32_MIDI_SYSEX_Parser
                0x08005a5c       0xdc project_build//C/mios32/trunk/mios32/common/mios32_midi.o
 .text.MIOS32_MIDI_TimeOut
                0x08005b38       0x4c project_build//C/mios32/trunk/mios32/common/mios32_midi.o
 .text.MIOS32_MIDI_Receive_Handler
                0x08005b84      0x334 project_build//C/mios32/trunk/mios32/common/mios32_midi.o
                0x08005b84                MIOS32_MIDI_Receive_Handler
 .text.MIOS32_MIDI_Periodic_mS
                0x08005eb8       0x30 project_build//C/mios32/trunk/mios32/common/mios32_midi.o
                0x08005eb8                MIOS32_MIDI_Periodic_mS
 .text.MIOS32_MIDI_SendByteToRxCallback
                0x08005ee8       0x14 project_build//C/mios32/trunk/mios32/common/mios32_midi.o
                0x08005ee8                MIOS32_MIDI_SendByteToRxCallback
 .text.MIOS32_MIDI_SendPackageToRxCallback
                0x08005efc       0x58 project_build//C/mios32/trunk/mios32/common/mios32_midi.o
                0x08005efc                MIOS32_MIDI_SendPackageToRxCallback
 .text.MIOS32_OSC_Init
                0x08005f54        0xc project_build//C/mios32/trunk/mios32/common/mios32_osc.o
                0x08005f54                MIOS32_OSC_Init
 .text.MIOS32_COM_Init
                0x08005f60       0x24 project_build//C/mios32/trunk/mios32/common/mios32_com.o
                0x08005f60                MIOS32_COM_Init
 .text.MIOS32_COM_SendBuffer
                0x08005f84       0x30 project_build//C/mios32/trunk/mios32/common/mios32_com.o
                0x08005f84                MIOS32_COM_SendBuffer
 .text.MIOS32_COM_SendChar
                0x08005fb4       0x12 project_build//C/mios32/trunk/mios32/common/mios32_com.o
                0x08005fb4                MIOS32_COM_SendChar
 .text.MIOS32_COM_Receive_Handler
                0x08005fc6       0x12 project_build//C/mios32/trunk/mios32/common/mios32_com.o
                0x08005fc6                MIOS32_COM_Receive_Handler
 .text.MIOS32_UART_MIDI_RS_Reset
                0x08005fd8       0x30 project_build//C/mios32/trunk/mios32/common/mios32_uart_midi.o
                0x08005fd8                MIOS32_UART_MIDI_RS_Reset
 .text.MIOS32_UART_MIDI_Init
                0x08006008       0x50 project_build//C/mios32/trunk/mios32/common/mios32_uart_midi.o
                0x08006008                MIOS32_UART_MIDI_Init
 .text.MIOS32_UART_MIDI_Periodic_mS
                0x08006058       0x58 project_build//C/mios32/trunk/mios32/common/mios32_uart_midi.o
                0x08006058                MIOS32_UART_MIDI_Periodic_mS
 .text.MIOS32_UART_MIDI_PackageSend_NonBlocking
                0x080060b0       0xcc project_build//C/mios32/trunk/mios32/common/mios32_uart_midi.o
                0x080060b0                MIOS32_UART_MIDI_PackageSend_NonBlocking
 .text.MIOS32_UART_MIDI_PackageSend
                0x0800617c       0x16 project_build//C/mios32/trunk/mios32/common/mios32_uart_midi.o
                0x0800617c                MIOS32_UART_MIDI_PackageSend
 *fill*         0x08006192        0x2 00
 .text.MIOS32_UART_MIDI_PackageReceive
                0x08006194      0x1b0 project_build//C/mios32/trunk/mios32/common/mios32_uart_midi.o
                0x08006194                MIOS32_UART_MIDI_PackageReceive
 .text.MIOS32_IIC_MIDI_Init
                0x08006344        0x6 project_build//C/mios32/trunk/mios32/common/mios32_iic_midi.o
                0x08006344                MIOS32_IIC_MIDI_Init
 .text.MIOS32_IIC_MIDI_Periodic_mS
                0x0800634a        0x4 project_build//C/mios32/trunk/mios32/common/mios32_iic_midi.o
                0x0800634a                MIOS32_IIC_MIDI_Periodic_mS
 .text.MIOS32_IIC_MIDI_PackageSend
                0x0800634e        0x6 project_build//C/mios32/trunk/mios32/common/mios32_iic_midi.o
                0x0800634e                MIOS32_IIC_MIDI_PackageSend
 .text.MIOS32_IIC_MIDI_PackageReceive
                0x08006354        0x6 project_build//C/mios32/trunk/mios32/common/mios32_iic_midi.o
                0x08006354                MIOS32_IIC_MIDI_PackageReceive
 .text.MIOS32_IIC_BS_Init
                0x0800635a        0x6 project_build//C/mios32/trunk/mios32/common/mios32_iic_bs.o
                0x0800635a                MIOS32_IIC_BS_Init
 .text.MIOS32_MF_Init
                0x08006360        0x6 project_build//C/mios32/trunk/mios32/common/mios32_mf.o
                0x08006360                MIOS32_MF_Init
 *fill*         0x08006366        0x2 00
 .text.MIOS32_SYS_Reset
                0x08006368       0x78 project_build//C/mios32/trunk/mios32/STM32F10x/mios32_sys.o
                0x08006368                MIOS32_SYS_Reset
 .text.MIOS32_SYS_ChipIDGet
                0x080063e0        0xc project_build//C/mios32/trunk/mios32/STM32F10x/mios32_sys.o
                0x080063e0                MIOS32_SYS_ChipIDGet
 .text.MIOS32_SYS_FlashSizeGet
                0x080063ec       0x10 project_build//C/mios32/trunk/mios32/STM32F10x/mios32_sys.o
                0x080063ec                MIOS32_SYS_FlashSizeGet
 .text.MIOS32_SYS_RAMSizeGet
                0x080063fc       0x10 project_build//C/mios32/trunk/mios32/STM32F10x/mios32_sys.o
                0x080063fc                MIOS32_SYS_RAMSizeGet
 .text.MIOS32_SYS_SerialNumberGet
                0x0800640c       0x34 project_build//C/mios32/trunk/mios32/STM32F10x/mios32_sys.o
                0x0800640c                MIOS32_SYS_SerialNumberGet
 .text.MIOS32_SYS_TimeSet
                0x08006440       0x5c project_build//C/mios32/trunk/mios32/STM32F10x/mios32_sys.o
                0x08006440                MIOS32_SYS_TimeSet
 .text.MIOS32_SYS_Init
                0x0800649c      0x120 project_build//C/mios32/trunk/mios32/STM32F10x/mios32_sys.o
                0x0800649c                MIOS32_SYS_Init
 .text.MIOS32_SYS_TimeGet
                0x080065bc       0x68 project_build//C/mios32/trunk/mios32/STM32F10x/mios32_sys.o
                0x080065bc                MIOS32_SYS_TimeGet
 .text.MIOS32_IRQ_Disable
                0x08006624       0x2c project_build//C/mios32/trunk/mios32/STM32F10x/mios32_irq.o
                0x08006624                MIOS32_IRQ_Disable
 .text.MIOS32_IRQ_Enable
                0x08006650       0x24 project_build//C/mios32/trunk/mios32/STM32F10x/mios32_irq.o
                0x08006650                MIOS32_IRQ_Enable
 .text.MIOS32_IRQ_Install
                0x08006674       0x48 project_build//C/mios32/trunk/mios32/STM32F10x/mios32_irq.o
                0x08006674                MIOS32_IRQ_Install
 .text.MIOS32_SPI_IO_Init
                0x080066bc      0x160 project_build//C/mios32/trunk/mios32/STM32F10x/mios32_spi.o
                0x080066bc                MIOS32_SPI_IO_Init
 .text.MIOS32_SPI_RC_PinSet
                0x0800681c       0x90 project_build//C/mios32/trunk/mios32/STM32F10x/mios32_spi.o
                0x0800681c                MIOS32_SPI_RC_PinSet
 .text.MIOS32_SPI_TransferByte
                0x080068ac      0x4ac project_build//C/mios32/trunk/mios32/STM32F10x/mios32_spi.o
                0x080068ac                MIOS32_SPI_TransferByte
 .text.MIOS32_SPI_TransferModeInit
                0x08006d58      0x108 project_build//C/mios32/trunk/mios32/STM32F10x/mios32_spi.o
                0x08006d58                MIOS32_SPI_TransferModeInit
 .text.MIOS32_SPI_Init
                0x08006e60      0x1b0 project_build//C/mios32/trunk/mios32/STM32F10x/mios32_spi.o
                0x08006e60                MIOS32_SPI_Init
 .text.DMA1_Channel2_IRQHandler
                0x08007010       0x18 project_build//C/mios32/trunk/mios32/STM32F10x/mios32_spi.o
                0x08007010                DMA1_Channel2_IRQHandler
 .text.DMA1_Channel4_IRQHandler
                0x08007028       0x18 project_build//C/mios32/trunk/mios32/STM32F10x/mios32_spi.o
                0x08007028                DMA1_Channel4_IRQHandler
 .text.MIOS32_BOARD_Init
                0x08007040       0x14 project_build//C/mios32/trunk/mios32/STM32F10x/mios32_board.o
                0x08007040                MIOS32_BOARD_Init
 .text.MIOS32_BOARD_LED_Init
                0x08007054       0x40 project_build//C/mios32/trunk/mios32/STM32F10x/mios32_board.o
                0x08007054                MIOS32_BOARD_LED_Init
 .text.MIOS32_BOARD_LED_Set
                0x08007094       0x28 project_build//C/mios32/trunk/mios32/STM32F10x/mios32_board.o
                0x08007094                MIOS32_BOARD_LED_Set
 .text.MIOS32_BOARD_LED_Get
                0x080070bc       0x10 project_build//C/mios32/trunk/mios32/STM32F10x/mios32_board.o
                0x080070bc                MIOS32_BOARD_LED_Get
 .text.MIOS32_BOARD_J5_PinInit
                0x080070cc       0x90 project_build//C/mios32/trunk/mios32/STM32F10x/mios32_board.o
                0x080070cc                MIOS32_BOARD_J5_PinInit
 .text.MIOS32_BOARD_J5_PinGet
                0x0800715c       0x3c project_build//C/mios32/trunk/mios32/STM32F10x/mios32_board.o
                0x0800715c                MIOS32_BOARD_J5_PinGet
 .text.MIOS32_BOARD_J15_PortInit
                0x08007198       0xc8 project_build//C/mios32/trunk/mios32/STM32F10x/mios32_board.o
                0x08007198                MIOS32_BOARD_J15_PortInit
 .text.MIOS32_BOARD_J15_DataSet
                0x08007260       0xc0 project_build//C/mios32/trunk/mios32/STM32F10x/mios32_board.o
                0x08007260                MIOS32_BOARD_J15_DataSet
 .text.MIOS32_BOARD_J15_RS_Set
                0x08007320       0x18 project_build//C/mios32/trunk/mios32/STM32F10x/mios32_board.o
                0x08007320                MIOS32_BOARD_J15_RS_Set
 .text.MIOS32_BOARD_J15_RW_Set
                0x08007338       0x18 project_build//C/mios32/trunk/mios32/STM32F10x/mios32_board.o
                0x08007338                MIOS32_BOARD_J15_RW_Set
 .text.MIOS32_BOARD_J15_E_Set
                0x08007350       0x34 project_build//C/mios32/trunk/mios32/STM32F10x/mios32_board.o
                0x08007350                MIOS32_BOARD_J15_E_Set
 .text.MIOS32_BOARD_J15_PollUnbusy
                0x08007384       0x74 project_build//C/mios32/trunk/mios32/STM32F10x/mios32_board.o
                0x08007384                MIOS32_BOARD_J15_PollUnbusy
 .text.TIM2_IRQHandler
                0x080073f8       0x24 project_build//C/mios32/trunk/mios32/STM32F10x/mios32_timer.o
                0x080073f8                TIM2_IRQHandler
 .text.TIM3_IRQHandler
                0x0800741c       0x24 project_build//C/mios32/trunk/mios32/STM32F10x/mios32_timer.o
                0x0800741c                TIM3_IRQHandler
 .text.TIM5_IRQHandler
                0x08007440       0x24 project_build//C/mios32/trunk/mios32/STM32F10x/mios32_timer.o
                0x08007440                TIM5_IRQHandler
 .text.MIOS32_DELAY_Init
                0x08007464       0x44 project_build//C/mios32/trunk/mios32/STM32F10x/mios32_delay.o
                0x08007464                MIOS32_DELAY_Init
 .text.MIOS32_DELAY_Wait_uS
                0x080074a8       0x18 project_build//C/mios32/trunk/mios32/STM32F10x/mios32_delay.o
                0x080074a8                MIOS32_DELAY_Wait_uS
 .text.MIOS32_AIN_Init
                0x080074c0      0x264 project_build//C/mios32/trunk/mios32/STM32F10x/mios32_ain.o
                0x080074c0                MIOS32_AIN_Init
 .text.MIOS32_AIN_Handler
                0x08007724       0xa8 project_build//C/mios32/trunk/mios32/STM32F10x/mios32_ain.o
                0x08007724                MIOS32_AIN_Handler
 .text.DMA1_Channel1_IRQHandler
                0x080077cc       0xec project_build//C/mios32/trunk/mios32/STM32F10x/mios32_ain.o
                0x080077cc                DMA1_Channel1_IRQHandler
 .text.MIOS32_USB_CB_SetDeviceAddress
                0x080078b8        0xc project_build//C/mios32/trunk/mios32/STM32F10x/mios32_usb.o
 .text.MIOS32_USB_CB_Status_In
                0x080078c4        0x2 project_build//C/mios32/trunk/mios32/STM32F10x/mios32_usb.o
 .text.MIOS32_USB_CB_Status_Out
                0x080078c6        0x2 project_build//C/mios32/trunk/mios32/STM32F10x/mios32_usb.o
 .text.MIOS32_USB_CB_Data_Setup
                0x080078c8        0x4 project_build//C/mios32/trunk/mios32/STM32F10x/mios32_usb.o
 .text.MIOS32_USB_CB_NoData_Setup
                0x080078cc        0x4 project_build//C/mios32/trunk/mios32/STM32F10x/mios32_usb.o
 .text.MIOS32_USB_CB_Get_Interface_Setting
                0x080078d0       0x10 project_build//C/mios32/trunk/mios32/STM32F10x/mios32_usb.o
 .text.MIOS32_USB_CB_SetConfiguration
                0x080078e0       0x20 project_build//C/mios32/trunk/mios32/STM32F10x/mios32_usb.o
 .text.MIOS32_USB_CB_GetStringDescriptor
                0x08007900      0x110 project_build//C/mios32/trunk/mios32/STM32F10x/mios32_usb.o
 .text.MIOS32_USB_CB_GetConfigDescriptor
                0x08007a10       0x1c project_build//C/mios32/trunk/mios32/STM32F10x/mios32_usb.o
 .text.MIOS32_USB_CB_GetDeviceDescriptor
                0x08007a2c       0x1c project_build//C/mios32/trunk/mios32/STM32F10x/mios32_usb.o
 .text.MIOS32_USB_CB_Reset
                0x08007a48       0xac project_build//C/mios32/trunk/mios32/STM32F10x/mios32_usb.o
 .text.USB_LP_CAN1_RX0_IRQHandler
                0x08007af4       0x40 project_build//C/mios32/trunk/mios32/STM32F10x/mios32_usb.o
                0x08007af4                USB_LP_CAN1_RX0_IRQHandler
 .text.MIOS32_USB_IsInitialized
                0x08007b34       0x10 project_build//C/mios32/trunk/mios32/STM32F10x/mios32_usb.o
                0x08007b34                MIOS32_USB_IsInitialized
 .text.MIOS32_USB_Init
                0x08007b44      0x148 project_build//C/mios32/trunk/mios32/STM32F10x/mios32_usb.o
                0x08007b44                MIOS32_USB_Init
 .text.MIOS32_USB_MIDI_RxBufferHandler
                0x08007c8c       0xa8 project_build//C/mios32/trunk/mios32/STM32F10x/mios32_usb_midi.o
 .text.MIOS32_USB_MIDI_TxBufferHandler
                0x08007d34       0xd4 project_build//C/mios32/trunk/mios32/STM32F10x/mios32_usb_midi.o
 .text.MIOS32_USB_MIDI_Init
                0x08007e08        0xc project_build//C/mios32/trunk/mios32/STM32F10x/mios32_usb_midi.o
                0x08007e08                MIOS32_USB_MIDI_Init
 .text.MIOS32_USB_MIDI_ChangeConnectionState
                0x08007e14       0x68 project_build//C/mios32/trunk/mios32/STM32F10x/mios32_usb_midi.o
                0x08007e14                MIOS32_USB_MIDI_ChangeConnectionState
 .text.MIOS32_USB_MIDI_PackageSend_NonBlocking
                0x08007e7c       0x70 project_build//C/mios32/trunk/mios32/STM32F10x/mios32_usb_midi.o
                0x08007e7c                MIOS32_USB_MIDI_PackageSend_NonBlocking
 .text.MIOS32_USB_MIDI_PackageSend
                0x08007eec       0x34 project_build//C/mios32/trunk/mios32/STM32F10x/mios32_usb_midi.o
                0x08007eec                MIOS32_USB_MIDI_PackageSend
 .text.MIOS32_USB_MIDI_PackageReceive
                0x08007f20       0x58 project_build//C/mios32/trunk/mios32/STM32F10x/mios32_usb_midi.o
                0x08007f20                MIOS32_USB_MIDI_PackageReceive
 .text.MIOS32_USB_MIDI_Periodic_mS
                0x08007f78        0xe project_build//C/mios32/trunk/mios32/STM32F10x/mios32_usb_midi.o
                0x08007f78                MIOS32_USB_MIDI_Periodic_mS
 *fill*         0x08007f86        0x2 00
 .text.MIOS32_USB_MIDI_EP1_IN_Callback
                0x08007f88       0x14 project_build//C/mios32/trunk/mios32/STM32F10x/mios32_usb_midi.o
                0x08007f88                MIOS32_USB_MIDI_EP1_IN_Callback
 .text.MIOS32_USB_MIDI_EP1_OUT_Callback
                0x08007f9c       0x14 project_build//C/mios32/trunk/mios32/STM32F10x/mios32_usb_midi.o
                0x08007f9c                MIOS32_USB_MIDI_EP1_OUT_Callback
 .text.MIOS32_UART_BaudrateSet
                0x08007fb0       0x58 project_build//C/mios32/trunk/mios32/STM32F10x/mios32_uart.o
                0x08007fb0                MIOS32_UART_BaudrateSet
 .text.MIOS32_UART_Init
                0x08008008      0x148 project_build//C/mios32/trunk/mios32/STM32F10x/mios32_uart.o
                0x08008008                MIOS32_UART_Init
 .text.MIOS32_UART_RxBufferGet
                0x08008150       0x58 project_build//C/mios32/trunk/mios32/STM32F10x/mios32_uart.o
                0x08008150                MIOS32_UART_RxBufferGet
 .text.MIOS32_UART_RxBufferPut
                0x080081a8       0x60 project_build//C/mios32/trunk/mios32/STM32F10x/mios32_uart.o
                0x080081a8                MIOS32_UART_RxBufferPut
 .text.MIOS32_UART_TxBufferGet
                0x08008208       0x58 project_build//C/mios32/trunk/mios32/STM32F10x/mios32_uart.o
                0x08008208                MIOS32_UART_TxBufferGet
 .text.MIOS32_UART_TxBufferPutMore_NonBlocking
                0x08008260       0xd4 project_build//C/mios32/trunk/mios32/STM32F10x/mios32_uart.o
                0x08008260                MIOS32_UART_TxBufferPutMore_NonBlocking
 .text.MIOS32_UART_TxBufferPutMore
                0x08008334       0x1a project_build//C/mios32/trunk/mios32/STM32F10x/mios32_uart.o
                0x08008334                MIOS32_UART_TxBufferPutMore
 *fill*         0x0800834e        0x2 00
 .text.USART1_IRQHandler
                0x08008350       0x5c project_build//C/mios32/trunk/mios32/STM32F10x/mios32_uart.o
                0x08008350                USART1_IRQHandler
 .text.USART3_IRQHandler
                0x080083ac       0x60 project_build//C/mios32/trunk/mios32/STM32F10x/mios32_uart.o
                0x080083ac                USART3_IRQHandler
 .text.USART2_IRQHandler
                0x0800840c       0x40 project_build//C/mios32/trunk/mios32/STM32F10x/mios32_uart.o
                0x0800840c                USART2_IRQHandler
 .text.I2C2_EV_IRQHandler
                0x0800844c      0x1bc project_build//C/mios32/trunk/mios32/STM32F10x/mios32_iic.o
                0x0800844c                I2C2_EV_IRQHandler
 .text.I2C2_ER_IRQHandler
                0x08008608       0x90 project_build//C/mios32/trunk/mios32/STM32F10x/mios32_iic.o
                0x08008608                I2C2_ER_IRQHandler
 .text.printchar
                0x08008698       0x1a project_build//C/mios32/trunk/mios32/common/printf-stdarg.o
 .text.prints   0x080086b2       0x82 project_build//C/mios32/trunk/mios32/common/printf-stdarg.o
 .text.printi   0x08008734       0xb2 project_build//C/mios32/trunk/mios32/common/printf-stdarg.o
 *fill*         0x080087e6        0x2 00
 .text.print    0x080087e8      0x11c project_build//C/mios32/trunk/mios32/common/printf-stdarg.o
 .text.sprintf  0x08008904       0x1e project_build//C/mios32/trunk/mios32/common/printf-stdarg.o
                0x08008904                sprintf
 .text.vsprintf
                0x08008922       0x10 project_build//C/mios32/trunk/mios32/common/printf-stdarg.o
                0x08008922                vsprintf
 .text.GPIO_Init
                0x08008932       0xb2 project_build//C/mios32/trunk/drivers/STM32F10x/v3.3.0/STM32F10x_StdPeriph_Driver/src/stm32f10x_gpio.o
                0x08008932                GPIO_Init
 .text.GPIO_StructInit
                0x080089e4       0x10 project_build//C/mios32/trunk/drivers/STM32F10x/v3.3.0/STM32F10x_StdPeriph_Driver/src/stm32f10x_gpio.o
                0x080089e4                GPIO_StructInit
 .text.GPIO_PinRemapConfig
                0x080089f4       0x74 project_build//C/mios32/trunk/drivers/STM32F10x/v3.3.0/STM32F10x_StdPeriph_Driver/src/stm32f10x_gpio.o
                0x080089f4                GPIO_PinRemapConfig
 .text.FLASH_SetLatency
                0x08008a68       0x14 project_build//C/mios32/trunk/drivers/STM32F10x/v3.3.0/STM32F10x_StdPeriph_Driver/src/stm32f10x_flash.o
                0x08008a68                FLASH_SetLatency
 .text.FLASH_PrefetchBufferCmd
                0x08008a7c       0x18 project_build//C/mios32/trunk/drivers/STM32F10x/v3.3.0/STM32F10x_StdPeriph_Driver/src/stm32f10x_flash.o
                0x08008a7c                FLASH_PrefetchBufferCmd
 .text.ADC_Init
                0x08008a94       0x4c project_build//C/mios32/trunk/drivers/STM32F10x/v3.3.0/STM32F10x_StdPeriph_Driver/src/stm32f10x_adc.o
                0x08008a94                ADC_Init
 .text.ADC_StructInit
                0x08008ae0       0x12 project_build//C/mios32/trunk/drivers/STM32F10x/v3.3.0/STM32F10x_StdPeriph_Driver/src/stm32f10x_adc.o
                0x08008ae0                ADC_StructInit
 .text.ADC_Cmd  0x08008af2       0x14 project_build//C/mios32/trunk/drivers/STM32F10x/v3.3.0/STM32F10x_StdPeriph_Driver/src/stm32f10x_adc.o
                0x08008af2                ADC_Cmd
 .text.ADC_DMACmd
                0x08008b06       0x14 project_build//C/mios32/trunk/drivers/STM32F10x/v3.3.0/STM32F10x_StdPeriph_Driver/src/stm32f10x_adc.o
                0x08008b06                ADC_DMACmd
 .text.ADC_ResetCalibration
                0x08008b1a        0xa project_build//C/mios32/trunk/drivers/STM32F10x/v3.3.0/STM32F10x_StdPeriph_Driver/src/stm32f10x_adc.o
                0x08008b1a                ADC_ResetCalibration
 .text.ADC_GetResetCalibrationStatus
                0x08008b24        0x8 project_build//C/mios32/trunk/drivers/STM32F10x/v3.3.0/STM32F10x_StdPeriph_Driver/src/stm32f10x_adc.o
                0x08008b24                ADC_GetResetCalibrationStatus
 .text.ADC_StartCalibration
                0x08008b2c        0xa project_build//C/mios32/trunk/drivers/STM32F10x/v3.3.0/STM32F10x_StdPeriph_Driver/src/stm32f10x_adc.o
                0x08008b2c                ADC_StartCalibration
 .text.ADC_GetCalibrationStatus
                0x08008b36        0x8 project_build//C/mios32/trunk/drivers/STM32F10x/v3.3.0/STM32F10x_StdPeriph_Driver/src/stm32f10x_adc.o
                0x08008b36                ADC_GetCalibrationStatus
 .text.ADC_SoftwareStartConvCmd
                0x08008b3e       0x14 project_build//C/mios32/trunk/drivers/STM32F10x/v3.3.0/STM32F10x_StdPeriph_Driver/src/stm32f10x_adc.o
                0x08008b3e                ADC_SoftwareStartConvCmd
 .text.ADC_RegularChannelConfig
                0x08008b52       0xa6 project_build//C/mios32/trunk/drivers/STM32F10x/v3.3.0/STM32F10x_StdPeriph_Driver/src/stm32f10x_adc.o
                0x08008b52                ADC_RegularChannelConfig
 .text.ADC_ExternalTrigConvCmd
                0x08008bf8       0x14 project_build//C/mios32/trunk/drivers/STM32F10x/v3.3.0/STM32F10x_StdPeriph_Driver/src/stm32f10x_adc.o
                0x08008bf8                ADC_ExternalTrigConvCmd
 .text.SPI_Init
                0x08008c0c       0x5a project_build//C/mios32/trunk/drivers/STM32F10x/v3.3.0/STM32F10x_StdPeriph_Driver/src/stm32f10x_spi.o
                0x08008c0c                SPI_Init
 .text.SPI_Cmd  0x08008c66       0x1a project_build//C/mios32/trunk/drivers/STM32F10x/v3.3.0/STM32F10x_StdPeriph_Driver/src/stm32f10x_spi.o
                0x08008c66                SPI_Cmd
 .text.SPI_I2S_DMACmd
                0x08008c80       0x16 project_build//C/mios32/trunk/drivers/STM32F10x/v3.3.0/STM32F10x_StdPeriph_Driver/src/stm32f10x_spi.o
                0x08008c80                SPI_I2S_DMACmd
 *fill*         0x08008c96        0x2 00
 .text.USART_Init
                0x08008c98       0xb8 project_build//C/mios32/trunk/drivers/STM32F10x/v3.3.0/STM32F10x_StdPeriph_Driver/src/stm32f10x_usart.o
                0x08008c98                USART_Init
 .text.USART_Cmd
                0x08008d50       0x1a project_build//C/mios32/trunk/drivers/STM32F10x/v3.3.0/STM32F10x_StdPeriph_Driver/src/stm32f10x_usart.o
                0x08008d50                USART_Cmd
 .text.USART_ITConfig
                0x08008d6a       0x36 project_build//C/mios32/trunk/drivers/STM32F10x/v3.3.0/STM32F10x_StdPeriph_Driver/src/stm32f10x_usart.o
                0x08008d6a                USART_ITConfig
 .text.I2C_GenerateSTART
                0x08008da0       0x1a project_build//C/mios32/trunk/drivers/STM32F10x/v3.3.0/STM32F10x_StdPeriph_Driver/src/stm32f10x_i2c.o
                0x08008da0                I2C_GenerateSTART
 .text.I2C_GenerateSTOP
                0x08008dba       0x1a project_build//C/mios32/trunk/drivers/STM32F10x/v3.3.0/STM32F10x_StdPeriph_Driver/src/stm32f10x_i2c.o
                0x08008dba                I2C_GenerateSTOP
 .text.I2C_AcknowledgeConfig
                0x08008dd4       0x1a project_build//C/mios32/trunk/drivers/STM32F10x/v3.3.0/STM32F10x_StdPeriph_Driver/src/stm32f10x_i2c.o
                0x08008dd4                I2C_AcknowledgeConfig
 .text.I2C_ITConfig
                0x08008dee       0x16 project_build//C/mios32/trunk/drivers/STM32F10x/v3.3.0/STM32F10x_StdPeriph_Driver/src/stm32f10x_i2c.o
                0x08008dee                I2C_ITConfig
 .text.I2C_SendData
                0x08008e04        0x4 project_build//C/mios32/trunk/drivers/STM32F10x/v3.3.0/STM32F10x_StdPeriph_Driver/src/stm32f10x_i2c.o
                0x08008e04                I2C_SendData
 .text.I2C_ReceiveData
                0x08008e08        0x6 project_build//C/mios32/trunk/drivers/STM32F10x/v3.3.0/STM32F10x_StdPeriph_Driver/src/stm32f10x_i2c.o
                0x08008e08                I2C_ReceiveData
 .text.I2C_Send7bitAddress
                0x08008e0e       0x10 project_build//C/mios32/trunk/drivers/STM32F10x/v3.3.0/STM32F10x_StdPeriph_Driver/src/stm32f10x_i2c.o
                0x08008e0e                I2C_Send7bitAddress
 .text.I2C_GetLastEvent
                0x08008e1e       0x10 project_build//C/mios32/trunk/drivers/STM32F10x/v3.3.0/STM32F10x_StdPeriph_Driver/src/stm32f10x_i2c.o
                0x08008e1e                I2C_GetLastEvent
 .text.I2C_ClearITPendingBit
                0x08008e2e        0x8 project_build//C/mios32/trunk/drivers/STM32F10x/v3.3.0/STM32F10x_StdPeriph_Driver/src/stm32f10x_i2c.o
                0x08008e2e                I2C_ClearITPendingBit
 *fill*         0x08008e36        0x2 00
 .text.DMA_DeInit
                0x08008e38       0xd4 project_build//C/mios32/trunk/drivers/STM32F10x/v3.3.0/STM32F10x_StdPeriph_Driver/src/stm32f10x_dma.o
                0x08008e38                DMA_DeInit
 .text.DMA_Init
                0x08008f0c       0x56 project_build//C/mios32/trunk/drivers/STM32F10x/v3.3.0/STM32F10x_StdPeriph_Driver/src/stm32f10x_dma.o
                0x08008f0c                DMA_Init
 .text.DMA_StructInit
                0x08008f62       0x1a project_build//C/mios32/trunk/drivers/STM32F10x/v3.3.0/STM32F10x_StdPeriph_Driver/src/stm32f10x_dma.o
                0x08008f62                DMA_StructInit
 .text.DMA_Cmd  0x08008f7c       0x14 project_build//C/mios32/trunk/drivers/STM32F10x/v3.3.0/STM32F10x_StdPeriph_Driver/src/stm32f10x_dma.o
                0x08008f7c                DMA_Cmd
 .text.DMA_ITConfig
                0x08008f90       0x12 project_build//C/mios32/trunk/drivers/STM32F10x/v3.3.0/STM32F10x_StdPeriph_Driver/src/stm32f10x_dma.o
                0x08008f90                DMA_ITConfig
 *fill*         0x08008fa2        0x2 00
 .text.DMA_ClearFlag
                0x08008fa4       0x18 project_build//C/mios32/trunk/drivers/STM32F10x/v3.3.0/STM32F10x_StdPeriph_Driver/src/stm32f10x_dma.o
                0x08008fa4                DMA_ClearFlag
 .text.TIM_TimeBaseInit
                0x08008fbc       0xe0 project_build//C/mios32/trunk/drivers/STM32F10x/v3.3.0/STM32F10x_StdPeriph_Driver/src/stm32f10x_tim.o
                0x08008fbc                TIM_TimeBaseInit
 .text.TIM_Cmd  0x0800909c       0x1a project_build//C/mios32/trunk/drivers/STM32F10x/v3.3.0/STM32F10x_StdPeriph_Driver/src/stm32f10x_tim.o
                0x0800909c                TIM_Cmd
 .text.TIM_GetITStatus
                0x080090b6       0x18 project_build//C/mios32/trunk/drivers/STM32F10x/v3.3.0/STM32F10x_StdPeriph_Driver/src/stm32f10x_tim.o
                0x080090b6                TIM_GetITStatus
 .text.TIM_ClearITPendingBit
                0x080090ce        0x8 project_build//C/mios32/trunk/drivers/STM32F10x/v3.3.0/STM32F10x_StdPeriph_Driver/src/stm32f10x_tim.o
                0x080090ce                TIM_ClearITPendingBit
 *fill*         0x080090d6        0x2 00
 .text.RCC_DeInit
                0x080090d8       0x40 project_build//C/mios32/trunk/drivers/STM32F10x/v3.3.0/STM32F10x_StdPeriph_Driver/src/stm32f10x_rcc.o
                0x080090d8                RCC_DeInit
 .text.RCC_HSEConfig
                0x08009118       0x38 project_build//C/mios32/trunk/drivers/STM32F10x/v3.3.0/STM32F10x_StdPeriph_Driver/src/stm32f10x_rcc.o
                0x08009118                RCC_HSEConfig
 .text.RCC_PLLConfig
                0x08009150       0x14 project_build//C/mios32/trunk/drivers/STM32F10x/v3.3.0/STM32F10x_StdPeriph_Driver/src/stm32f10x_rcc.o
                0x08009150                RCC_PLLConfig
 .text.RCC_PLLCmd
                0x08009164        0xc project_build//C/mios32/trunk/drivers/STM32F10x/v3.3.0/STM32F10x_StdPeriph_Driver/src/stm32f10x_rcc.o
                0x08009164                RCC_PLLCmd
 .text.RCC_SYSCLKConfig
                0x08009170       0x14 project_build//C/mios32/trunk/drivers/STM32F10x/v3.3.0/STM32F10x_StdPeriph_Driver/src/stm32f10x_rcc.o
                0x08009170                RCC_SYSCLKConfig
 .text.RCC_GetSYSCLKSource
                0x08009184       0x10 project_build//C/mios32/trunk/drivers/STM32F10x/v3.3.0/STM32F10x_StdPeriph_Driver/src/stm32f10x_rcc.o
                0x08009184                RCC_GetSYSCLKSource
 .text.RCC_HCLKConfig
                0x08009194       0x14 project_build//C/mios32/trunk/drivers/STM32F10x/v3.3.0/STM32F10x_StdPeriph_Driver/src/stm32f10x_rcc.o
                0x08009194                RCC_HCLKConfig
 .text.RCC_PCLK1Config
                0x080091a8       0x14 project_build//C/mios32/trunk/drivers/STM32F10x/v3.3.0/STM32F10x_StdPeriph_Driver/src/stm32f10x_rcc.o
                0x080091a8                RCC_PCLK1Config
 .text.RCC_PCLK2Config
                0x080091bc       0x14 project_build//C/mios32/trunk/drivers/STM32F10x/v3.3.0/STM32F10x_StdPeriph_Driver/src/stm32f10x_rcc.o
                0x080091bc                RCC_PCLK2Config
 .text.RCC_USBCLKConfig
                0x080091d0        0xc project_build//C/mios32/trunk/drivers/STM32F10x/v3.3.0/STM32F10x_StdPeriph_Driver/src/stm32f10x_rcc.o
                0x080091d0                RCC_USBCLKConfig
 .text.RCC_ADCCLKConfig
                0x080091dc       0x14 project_build//C/mios32/trunk/drivers/STM32F10x/v3.3.0/STM32F10x_StdPeriph_Driver/src/stm32f10x_rcc.o
                0x080091dc                RCC_ADCCLKConfig
 .text.RCC_RTCCLKConfig
                0x080091f0       0x10 project_build//C/mios32/trunk/drivers/STM32F10x/v3.3.0/STM32F10x_StdPeriph_Driver/src/stm32f10x_rcc.o
                0x080091f0                RCC_RTCCLKConfig
 .text.RCC_RTCCLKCmd
                0x08009200        0xc project_build//C/mios32/trunk/drivers/STM32F10x/v3.3.0/STM32F10x_StdPeriph_Driver/src/stm32f10x_rcc.o
                0x08009200                RCC_RTCCLKCmd
 .text.RCC_GetClocksFreq
                0x0800920c       0xa8 project_build//C/mios32/trunk/drivers/STM32F10x/v3.3.0/STM32F10x_StdPeriph_Driver/src/stm32f10x_rcc.o
                0x0800920c                RCC_GetClocksFreq
 .text.RCC_AHBPeriphClockCmd
                0x080092b4       0x1c project_build//C/mios32/trunk/drivers/STM32F10x/v3.3.0/STM32F10x_StdPeriph_Driver/src/stm32f10x_rcc.o
                0x080092b4                RCC_AHBPeriphClockCmd
 .text.RCC_APB2PeriphClockCmd
                0x080092d0       0x1c project_build//C/mios32/trunk/drivers/STM32F10x/v3.3.0/STM32F10x_StdPeriph_Driver/src/stm32f10x_rcc.o
                0x080092d0                RCC_APB2PeriphClockCmd
 .text.RCC_APB1PeriphClockCmd
                0x080092ec       0x1c project_build//C/mios32/trunk/drivers/STM32F10x/v3.3.0/STM32F10x_StdPeriph_Driver/src/stm32f10x_rcc.o
                0x080092ec                RCC_APB1PeriphClockCmd
 .text.RCC_APB2PeriphResetCmd
                0x08009308       0x1c project_build//C/mios32/trunk/drivers/STM32F10x/v3.3.0/STM32F10x_StdPeriph_Driver/src/stm32f10x_rcc.o
                0x08009308                RCC_APB2PeriphResetCmd
 .text.RCC_APB1PeriphResetCmd
                0x08009324       0x1c project_build//C/mios32/trunk/drivers/STM32F10x/v3.3.0/STM32F10x_StdPeriph_Driver/src/stm32f10x_rcc.o
                0x08009324                RCC_APB1PeriphResetCmd
 .text.RCC_BackupResetCmd
                0x08009340        0xc project_build//C/mios32/trunk/drivers/STM32F10x/v3.3.0/STM32F10x_StdPeriph_Driver/src/stm32f10x_rcc.o
                0x08009340                RCC_BackupResetCmd
 .text.RCC_GetFlagStatus
                0x0800934c       0x2c project_build//C/mios32/trunk/drivers/STM32F10x/v3.3.0/STM32F10x_StdPeriph_Driver/src/stm32f10x_rcc.o
                0x0800934c                RCC_GetFlagStatus
 .text.RCC_WaitForHSEStartUp
                0x08009378       0x2c project_build//C/mios32/trunk/drivers/STM32F10x/v3.3.0/STM32F10x_StdPeriph_Driver/src/stm32f10x_rcc.o
                0x08009378                RCC_WaitForHSEStartUp
 .text.RTC_ITConfig
                0x080093a4       0x20 project_build//C/mios32/trunk/drivers/STM32F10x/v3.3.0/STM32F10x_StdPeriph_Driver/src/stm32f10x_rtc.o
                0x080093a4                RTC_ITConfig
 .text.RTC_EnterConfigMode
                0x080093c4       0x14 project_build//C/mios32/trunk/drivers/STM32F10x/v3.3.0/STM32F10x_StdPeriph_Driver/src/stm32f10x_rtc.o
                0x080093c4                RTC_EnterConfigMode
 .text.RTC_ExitConfigMode
                0x080093d8       0x14 project_build//C/mios32/trunk/drivers/STM32F10x/v3.3.0/STM32F10x_StdPeriph_Driver/src/stm32f10x_rtc.o
                0x080093d8                RTC_ExitConfigMode
 .text.RTC_SetCounter
                0x080093ec       0x1c project_build//C/mios32/trunk/drivers/STM32F10x/v3.3.0/STM32F10x_StdPeriph_Driver/src/stm32f10x_rtc.o
                0x080093ec                RTC_SetCounter
 .text.RTC_SetPrescaler
                0x08009408       0x20 project_build//C/mios32/trunk/drivers/STM32F10x/v3.3.0/STM32F10x_StdPeriph_Driver/src/stm32f10x_rtc.o
                0x08009408                RTC_SetPrescaler
 .text.RTC_WaitForLastTask
                0x08009428       0x10 project_build//C/mios32/trunk/drivers/STM32F10x/v3.3.0/STM32F10x_StdPeriph_Driver/src/stm32f10x_rtc.o
                0x08009428                RTC_WaitForLastTask
 .text.RTC_WaitForSynchro
                0x08009438       0x1c project_build//C/mios32/trunk/drivers/STM32F10x/v3.3.0/STM32F10x_StdPeriph_Driver/src/stm32f10x_rtc.o
                0x08009438                RTC_WaitForSynchro
 .text.BKP_DeInit
                0x08009454       0x10 project_build//C/mios32/trunk/drivers/STM32F10x/v3.3.0/STM32F10x_StdPeriph_Driver/src/stm32f10x_bkp.o
                0x08009454                BKP_DeInit
 .text.PWR_BackupAccessCmd
                0x08009464        0xc project_build//C/mios32/trunk/drivers/STM32F10x/v3.3.0/STM32F10x_StdPeriph_Driver/src/stm32f10x_pwr.o
                0x08009464                PWR_BackupAccessCmd
 .text.NVIC_PriorityGroupConfig
                0x08009470       0x14 project_build//C/mios32/trunk/drivers/STM32F10x/v3.3.0/STM32F10x_StdPeriph_Driver/src/misc.o
                0x08009470                NVIC_PriorityGroupConfig
 .text.NVIC_SetVectorTable
                0x08009484       0x18 project_build//C/mios32/trunk/drivers/STM32F10x/v3.3.0/STM32F10x_StdPeriph_Driver/src/misc.o
                0x08009484                NVIC_SetVectorTable
 .text.SysTick_CLKSourceConfig
                0x0800949c       0x20 project_build//C/mios32/trunk/drivers/STM32F10x/v3.3.0/STM32F10x_StdPeriph_Driver/src/misc.o
                0x0800949c                SysTick_CLKSourceConfig
 .text.Standard_GetConfiguration
                0x080094bc       0x24 project_build//C/mios32/trunk/drivers/STM32F10x/v3.3.0/STM32_USB-FS-Device_Driver/src/usb_core.o
                0x080094bc                Standard_GetConfiguration
 .text.Standard_GetInterface
                0x080094e0       0x24 project_build//C/mios32/trunk/drivers/STM32F10x/v3.3.0/STM32_USB-FS-Device_Driver/src/usb_core.o
                0x080094e0                Standard_GetInterface
 .text.Standard_GetStatus
                0x08009504       0xac project_build//C/mios32/trunk/drivers/STM32F10x/v3.3.0/STM32_USB-FS-Device_Driver/src/usb_core.o
                0x08009504                Standard_GetStatus
 .text.DataStageIn
                0x080095b0       0xb8 project_build//C/mios32/trunk/drivers/STM32F10x/v3.3.0/STM32_USB-FS-Device_Driver/src/usb_core.o
 .text.Standard_SetConfiguration
                0x08009668       0x38 project_build//C/mios32/trunk/drivers/STM32F10x/v3.3.0/STM32_USB-FS-Device_Driver/src/usb_core.o
                0x08009668                Standard_SetConfiguration
 .text.Standard_SetInterface
                0x080096a0       0x48 project_build//C/mios32/trunk/drivers/STM32F10x/v3.3.0/STM32_USB-FS-Device_Driver/src/usb_core.o
                0x080096a0                Standard_SetInterface
 .text.Standard_ClearFeature
                0x080096e8      0x110 project_build//C/mios32/trunk/drivers/STM32F10x/v3.3.0/STM32_USB-FS-Device_Driver/src/usb_core.o
                0x080096e8                Standard_ClearFeature
 .text.Standard_SetEndPointFeature
                0x080097f8       0xbc project_build//C/mios32/trunk/drivers/STM32F10x/v3.3.0/STM32_USB-FS-Device_Driver/src/usb_core.o
                0x080097f8                Standard_SetEndPointFeature
 .text.Standard_SetDeviceFeature
                0x080098b4       0x24 project_build//C/mios32/trunk/drivers/STM32F10x/v3.3.0/STM32_USB-FS-Device_Driver/src/usb_core.o
                0x080098b4                Standard_SetDeviceFeature
 .text.Standard_GetDescriptorData
                0x080098d8       0x1c project_build//C/mios32/trunk/drivers/STM32F10x/v3.3.0/STM32_USB-FS-Device_Driver/src/usb_core.o
                0x080098d8                Standard_GetDescriptorData
 .text.Post0_Process
                0x080098f4       0x44 project_build//C/mios32/trunk/drivers/STM32F10x/v3.3.0/STM32_USB-FS-Device_Driver/src/usb_core.o
                0x080098f4                Post0_Process
 .text.Out0_Process
                0x08009938       0xfc project_build//C/mios32/trunk/drivers/STM32F10x/v3.3.0/STM32_USB-FS-Device_Driver/src/usb_core.o
                0x08009938                Out0_Process
 .text.Setup0_Process
                0x08009a34      0x308 project_build//C/mios32/trunk/drivers/STM32F10x/v3.3.0/STM32_USB-FS-Device_Driver/src/usb_core.o
                0x08009a34                Setup0_Process
 .text.SetDeviceAddress
                0x08009d3c       0x48 project_build//C/mios32/trunk/drivers/STM32F10x/v3.3.0/STM32_USB-FS-Device_Driver/src/usb_core.o
                0x08009d3c                SetDeviceAddress
 .text.In0_Process
                0x08009d84       0x68 project_build//C/mios32/trunk/drivers/STM32F10x/v3.3.0/STM32_USB-FS-Device_Driver/src/usb_core.o
                0x08009d84                In0_Process
 .text.NOP_Process
                0x08009dec        0x2 project_build//C/mios32/trunk/drivers/STM32F10x/v3.3.0/STM32_USB-FS-Device_Driver/src/usb_core.o
                0x08009dec                NOP_Process
 *fill*         0x08009dee        0x2 00
 .text.CTR_LP   0x08009df0      0x178 project_build//C/mios32/trunk/drivers/STM32F10x/v3.3.0/STM32_USB-FS-Device_Driver/src/usb_int.o
                0x08009df0                CTR_LP
 .text.UserToPMABufferCopy
                0x08009f68       0x2c project_build//C/mios32/trunk/drivers/STM32F10x/v3.3.0/STM32_USB-FS-Device_Driver/src/usb_mem.o
                0x08009f68                UserToPMABufferCopy
 .text.PMAToUserBufferCopy
                0x08009f94       0x20 project_build//C/mios32/trunk/drivers/STM32F10x/v3.3.0/STM32_USB-FS-Device_Driver/src/usb_mem.o
                0x08009f94                PMAToUserBufferCopy
 .text.SetBTABLE
                0x08009fb4       0x14 project_build//C/mios32/trunk/drivers/STM32F10x/v3.3.0/STM32_USB-FS-Device_Driver/src/usb_regs.o
                0x08009fb4                SetBTABLE
 .text.SetEPType
                0x08009fc8       0x1e project_build//C/mios32/trunk/drivers/STM32F10x/v3.3.0/STM32_USB-FS-Device_Driver/src/usb_regs.o
                0x08009fc8                SetEPType
 .text.GetEPType
                0x08009fe6       0x12 project_build//C/mios32/trunk/drivers/STM32F10x/v3.3.0/STM32_USB-FS-Device_Driver/src/usb_regs.o
                0x08009fe6                GetEPType
 .text.SetEPTxStatus
                0x08009ff8       0x38 project_build//C/mios32/trunk/drivers/STM32F10x/v3.3.0/STM32_USB-FS-Device_Driver/src/usb_regs.o
                0x08009ff8                SetEPTxStatus
 .text.SetEPTxValid
                0x0800a030       0x24 project_build//C/mios32/trunk/drivers/STM32F10x/v3.3.0/STM32_USB-FS-Device_Driver/src/usb_regs.o
                0x0800a030                SetEPTxValid
 .text.SetEPRxValid
                0x0800a054       0x24 project_build//C/mios32/trunk/drivers/STM32F10x/v3.3.0/STM32_USB-FS-Device_Driver/src/usb_regs.o
                0x0800a054                SetEPRxValid
 .text.Clear_Status_Out
                0x0800a078       0x20 project_build//C/mios32/trunk/drivers/STM32F10x/v3.3.0/STM32_USB-FS-Device_Driver/src/usb_regs.o
                0x0800a078                Clear_Status_Out
 .text.ClearDTOG_RX
                0x0800a098       0x28 project_build//C/mios32/trunk/drivers/STM32F10x/v3.3.0/STM32_USB-FS-Device_Driver/src/usb_regs.o
                0x0800a098                ClearDTOG_RX
 .text.ClearDTOG_TX
                0x0800a0c0       0x28 project_build//C/mios32/trunk/drivers/STM32F10x/v3.3.0/STM32_USB-FS-Device_Driver/src/usb_regs.o
                0x0800a0c0                ClearDTOG_TX
 .text.SetEPTxAddr
                0x0800a0e8       0x20 project_build//C/mios32/trunk/drivers/STM32F10x/v3.3.0/STM32_USB-FS-Device_Driver/src/usb_regs.o
                0x0800a0e8                SetEPTxAddr
 .text.SetEPRxAddr
                0x0800a108       0x20 project_build//C/mios32/trunk/drivers/STM32F10x/v3.3.0/STM32_USB-FS-Device_Driver/src/usb_regs.o
                0x0800a108                SetEPRxAddr
 .text.GetEPTxAddr
                0x0800a128       0x1c project_build//C/mios32/trunk/drivers/STM32F10x/v3.3.0/STM32_USB-FS-Device_Driver/src/usb_regs.o
                0x0800a128                GetEPTxAddr
 .text.GetEPRxAddr
                0x0800a144       0x1c project_build//C/mios32/trunk/drivers/STM32F10x/v3.3.0/STM32_USB-FS-Device_Driver/src/usb_regs.o
                0x0800a144                GetEPRxAddr
 .text.SetEPTxCount
                0x0800a160       0x1c project_build//C/mios32/trunk/drivers/STM32F10x/v3.3.0/STM32_USB-FS-Device_Driver/src/usb_regs.o
                0x0800a160                SetEPTxCount
 .text.SetEPRxCount
                0x0800a17c       0x40 project_build//C/mios32/trunk/drivers/STM32F10x/v3.3.0/STM32_USB-FS-Device_Driver/src/usb_regs.o
                0x0800a17c                SetEPRxCount
 .text.GetEPRxCount
                0x0800a1bc       0x20 project_build//C/mios32/trunk/drivers/STM32F10x/v3.3.0/STM32_USB-FS-Device_Driver/src/usb_regs.o
                0x0800a1bc                GetEPRxCount
 .text.ByteSwap
                0x0800a1dc        0xa project_build//C/mios32/trunk/drivers/STM32F10x/v3.3.0/STM32_USB-FS-Device_Driver/src/usb_regs.o
                0x0800a1dc                ByteSwap
 *fill*         0x0800a1e6        0x2 00
 .text.APP_LCD_Data
                0x0800a1e8       0x64 project_build//C/mios32/trunk/modules/app_lcd/clcd/app_lcd.o
                0x0800a1e8                APP_LCD_Data
 .text.APP_LCD_Cmd
                0x0800a24c       0x64 project_build//C/mios32/trunk/modules/app_lcd/clcd/app_lcd.o
                0x0800a24c                APP_LCD_Cmd
 .text.APP_LCD_Init
                0x0800a2b0       0xd0 project_build//C/mios32/trunk/modules/app_lcd/clcd/app_lcd.o
                0x0800a2b0                APP_LCD_Init
 .text.APP_LCD_Clear
                0x0800a380        0xa project_build//C/mios32/trunk/modules/app_lcd/clcd/app_lcd.o
                0x0800a380                APP_LCD_Clear
 *fill*         0x0800a38a        0x2 00
 .text.APP_LCD_CursorSet
                0x0800a38c       0x24 project_build//C/mios32/trunk/modules/app_lcd/clcd/app_lcd.o
                0x0800a38c                APP_LCD_CursorSet
 .text.APP_LCD_GCursorSet
                0x0800a3b0        0x6 project_build//C/mios32/trunk/modules/app_lcd/clcd/app_lcd.o
                0x0800a3b0                APP_LCD_GCursorSet
 .text.APP_LCD_BColourSet
                0x0800a3b6        0x6 project_build//C/mios32/trunk/modules/app_lcd/clcd/app_lcd.o
                0x0800a3b6                APP_LCD_BColourSet
 .text.APP_LCD_FColourSet
                0x0800a3bc        0x6 project_build//C/mios32/trunk/modules/app_lcd/clcd/app_lcd.o
                0x0800a3bc                APP_LCD_FColourSet
 .text.APP_LCD_BitmapPrint
                0x0800a3c2       0x10 project_build//C/mios32/trunk/modules/app_lcd/clcd/app_lcd.o
                0x0800a3c2                APP_LCD_BitmapPrint
 *fill*         0x0800a3d2        0x2 00
 .text.__libc_init_array
                0x0800a3d4       0x48 c:/mios32_toolchain/bin/../lib/gcc/arm-none-eabi/4.5.1/../../../../arm-none-eabi/lib/thumb/v7m\libg.a(lib_a-init.o)
                0x0800a3d4                __libc_init_array
 .text.memcpy   0x0800a41c       0x16 c:/mios32_toolchain/bin/../lib/gcc/arm-none-eabi/4.5.1/../../../../arm-none-eabi/lib/thumb/v7m\libg.a(lib_a-memcpy.o)
                0x0800a41c                memcpy
 .text.memset   0x0800a432       0x10 c:/mios32_toolchain/bin/../lib/gcc/arm-none-eabi/4.5.1/../../../../arm-none-eabi/lib/thumb/v7m\libg.a(lib_a-memset.o)
                0x0800a432                memset
 .text.strcpy   0x0800a442        0xe c:/mios32_toolchain/bin/../lib/gcc/arm-none-eabi/4.5.1/../../../../arm-none-eabi/lib/thumb/v7m\libg.a(lib_a-strcpy.o)
                0x0800a442                strcpy
 .text.strlen   0x0800a450       0x10 c:/mios32_toolchain/bin/../lib/gcc/arm-none-eabi/4.5.1/../../../../arm-none-eabi/lib/thumb/v7m\libg.a(lib_a-strlen.o)
                0x0800a450                strlen
 .text.strncpy  0x0800a460       0x28 c:/mios32_toolchain/bin/../lib/gcc/arm-none-eabi/4.5.1/../../../../arm-none-eabi/lib/thumb/v7m\libg.a(lib_a-strncpy.o)
                0x0800a460                strncpy
 *(.plt)
 *(.gnu.warning)
 *(.glue_7t)
 .glue_7t       0x00000000        0x0 linker stubs
 *(.glue_7)
 .glue_7        0x00000000        0x0 linker stubs
 *(.vfp11_veneer)
 .vfp11_veneer  0x00000000        0x0 linker stubs
 *(.ARM.extab* .gnu.linkonce.armextab.*)
 *(.gcc_except_table)

.v4_bx          0x20000000        0x0
 .v4_bx         0x00000000        0x0 linker stubs

.eh_frame_hdr
 *(.eh_frame_hdr)

.eh_frame
 *(.eh_frame)
                0x20000000                __exidx_start = .

.ARM.exidx
 *(.ARM.exidx* .gnu.linkonce.armexidx.*)
                0x20000000                __exidx_end = .

.rodata         0x0800a488      0xbe0
 *(.rodata .rodata.* .gnu.linkonce.r.*)
 .rodata.note_table
                0x0800a488      0x300 project_build/app.o
                0x0800a488                note_table
 .rodata.str1.1
                0x0800a788      0x192 project_build/app.o
 *fill*         0x0800a91a        0x2 00
 .rodata.velocity_table
                0x0800a91c      0x200 project_build/app.o
                0x0800a91c                velocity_table
 .rodata.str1.1
                0x0800ab1c      0x130 project_build//C/mios32/trunk/programming_models/traditional/main.o
 .rodata.str1.1
                0x0800ac4c        0x5 project_build//C/mios32/trunk/FreeRTOS/Source/tasks.o
 .rodata.str1.1
                0x0800ac51      0x121 project_build//C/mios32/trunk/FreeRTOS/Source/portable/MemMang/umm_malloc.o
 *fill*         0x0800ad72        0x2 00
 .rodata.C.7.7796
                0x0800ad74        0x4 project_build//C/mios32/trunk/mios32/common/mios32_lcd.o
 .rodata.str1.1
                0x0800ad78       0x22 project_build//C/mios32/trunk/mios32/common/mios32_lcd.o
 *fill*         0x0800ad9a        0x2 00
 .rodata.mios32_midi_expected_bytes_system
                0x0800ad9c       0x10 project_build//C/mios32/trunk/mios32/common/mios32_midi.o
                0x0800ad9c                mios32_midi_expected_bytes_system
 .rodata.mios32_midi_pcktype_num_bytes
                0x0800adac       0x10 project_build//C/mios32/trunk/mios32/common/mios32_midi.o
                0x0800adac                mios32_midi_pcktype_num_bytes
 .rodata.str1.1
                0x0800adbc      0x112 project_build//C/mios32/trunk/mios32/common/mios32_midi.o
                                0x134 (size before relaxing)
 *fill*         0x0800aece        0x2 00
 .rodata.mios32_midi_expected_bytes_common
                0x0800aed0        0x8 project_build//C/mios32/trunk/mios32/common/mios32_midi.o
                0x0800aed0                mios32_midi_expected_bytes_common
 .rodata.mios32_midi_sysex_header
                0x0800aed8        0x8 project_build//C/mios32/trunk/mios32/common/mios32_midi.o
                0x0800aed8                mios32_midi_sysex_header
 .rodata.CSWTCH.16
                0x0800aee0        0xc project_build//C/mios32/trunk/mios32/common/mios32_uart_midi.o
 .rodata.str1.1
                0x0800aeec       0x11 project_build//C/mios32/trunk/mios32/STM32F10x/mios32_sys.o
 *fill*         0x0800aefd        0x3 00
 .rodata.j5_pin
                0x0800af00       0x60 project_build//C/mios32/trunk/mios32/STM32F10x/mios32_board.o
 .rodata.adc_chn_map
                0x0800af60       0x10 project_build//C/mios32/trunk/mios32/STM32F10x/mios32_ain.o
 .rodata.My_User_Standard_Requests
                0x0800af70       0x24 project_build//C/mios32/trunk/mios32/STM32F10x/mios32_usb.o
 .rodata.MIOS32_USB_DeviceDescriptor
                0x0800af94       0x14 project_build//C/mios32/trunk/mios32/STM32F10x/mios32_usb.o
 .rodata.My_Device_Property
                0x0800afa8       0x30 project_build//C/mios32/trunk/mios32/STM32F10x/mios32_usb.o
 .rodata.str1.1
                0x0800afd8        0xc project_build//C/mios32/trunk/mios32/STM32F10x/mios32_usb.o
                                 0x13 (size before relaxing)
 .rodata.C.9.8393
                0x0800afe4        0x8 project_build//C/mios32/trunk/mios32/STM32F10x/mios32_usb.o
 .rodata.C.8.8390
                0x0800afec        0x8 project_build//C/mios32/trunk/mios32/STM32F10x/mios32_usb.o
 .rodata.MIOS32_USB_ConfigDescriptor
                0x0800aff4       0x68 project_build//C/mios32/trunk/mios32/STM32F10x/mios32_usb.o
 .rodata.str1.1
                0x0800b05c        0x7 project_build//C/mios32/trunk/mios32/common/printf-stdarg.o
                0x0800b064                . = ALIGN (0x4)
 *fill*         0x0800b063        0x1 00
 *(.init)
                0x0800b064                . = ALIGN (0x4)
                0x0800b064                __preinit_array_start = .
 *(.preinit_array)
                0x0800b064                __preinit_array_end = .
                0x0800b064                . = ALIGN (0x4)
                0x0800b064                __init_array_start = .
 *(SORT(.init_array.*))
 *(.init_array)
                0x0800b064                __init_array_end = .
                0x0800b064                . = ALIGN (0x4)
 *(.fini)
                0x0800b064                . = ALIGN (0x4)
                0x0800b064                __fini_array_start = .
 *(.fini_array)
 *(SORT(.fini_array.*))
                0x0800b064                __fini_array_end = .
                0x0800b064                . = ALIGN (0x4)
 *crtbegin.o(.ctors)
 *(EXCLUDE_FILE(*crtend.o) .ctors)
 *(SORT(.ctors.*))
 *crtend.o(.ctors)
                0x0800b064                . = ALIGN (0x4)
 *crtbegin.o(.dtors)
 *(EXCLUDE_FILE(*crtend.o) .dtors)
 *(SORT(.dtors.*))
 *crtend.o(.dtors)
 *(.init .init.*)
 *(.fini .fini.*)
                0x0800b064                PROVIDE (__preinit_array_start, .)
 *(.preinit_array)
                0x0800b064                PROVIDE (__preinit_array_end, .)
                0x0800b064                PROVIDE (__init_array_start, .)
 *(SORT(.init_array.*))
 *(.init_array)
                0x0800b064                PROVIDE (__init_array_end, .)
                0x0800b064                PROVIDE (__fini_array_start, .)
 *(.fini_array)
 *(SORT(.fini_array.*))
                0x0800b064                PROVIDE (__fini_array_end, .)
                0x0800b068                . = ALIGN (0x8)
 *fill*         0x0800b064        0x4 00
 *(.rom)
 *(.rom.b)
                0x0800b068                _etext = .
                0x0800b068                _sidata = _etext

.data           0x20000000       0x58 load address 0x0800b068
                0x20000000                _sdata = .
                0x20000000                . = ALIGN (0x80)
                0x00000000                _isr_vectorsram_offs = (. - 0x20000000)
 *(.isr_vectorsram)
                0x20000000                . = ALIGN (0x4)
 *(.jcr)
 *(.got.plt)
 *(.got)
 *(.shdata)
 *(.data .data.* .gnu.linkonce.d.*)
 .data.uxCriticalNesting
                0x20000000        0x4 project_build//C/mios32/trunk/FreeRTOS/Source/portable/GCC/ARM_CM3/port.o
 .data.default_port
                0x20000004        0x1 project_build//C/mios32/trunk/mios32/common/mios32_midi.o
 .data.debug_port
                0x20000005        0x1 project_build//C/mios32/trunk/mios32/common/mios32_midi.o
 .data.debug_req.6342
                0x20000006        0x1 project_build//C/mios32/trunk/mios32/common/mios32_midi.o
 .data.default_port
                0x20000007        0x1 project_build//C/mios32/trunk/mios32/common/mios32_com.o
 .data.debug_port
                0x20000008        0x1 project_build//C/mios32/trunk/mios32/common/mios32_com.o
 *fill*         0x20000009        0x3 00
 .data.pEpInt_IN
                0x2000000c       0x1c project_build//C/mios32/trunk/mios32/STM32F10x/mios32_usb.o
                0x2000000c                pEpInt_IN
 .data.pEpInt_OUT
                0x20000028       0x1c project_build//C/mios32/trunk/mios32/STM32F10x/mios32_usb.o
                0x20000028                pEpInt_OUT
 .data.ADCPrescTable
                0x20000044        0x4 project_build//C/mios32/trunk/drivers/STM32F10x/v3.3.0/STM32F10x_StdPeriph_Driver/src/stm32f10x_rcc.o
 .data.APBAHBPrescTable
                0x20000048       0x10 project_build//C/mios32/trunk/drivers/STM32F10x/v3.3.0/STM32F10x_StdPeriph_Driver/src/stm32f10x_rcc.o
                0x20000058                . = ALIGN (0x8)
 *(.ram)
 *(.ramfunc*)
                0x20000058                . = ALIGN (0x4)
                0x20000058                _edata = .

.bss            0x20000058     0x3750 load address 0x0800b0c0
                0x20000058                . = ALIGN (0x4)
                0x20000058                _sbss = .
 *(.shbss)
 *(.bss .bss.* .gnu.linkonce.b.*)
 .bss.keyboard_delay_fastest
                0x20000058        0x4 project_build/app.o
 .bss.din_value
                0x2000005c       0x40 project_build/app.o
 .bss.keyboard_delay_slowest
                0x2000009c        0x4 project_build/app.o
 .bss.last_timestamp
                0x200000a0      0x600 project_build/app.o
 .bss.uxMissedTicks
                0x200006a0        0x4 project_build//C/mios32/trunk/FreeRTOS/Source/tasks.o
 .bss.xNumOfOverflows
                0x200006a4        0x4 project_build//C/mios32/trunk/FreeRTOS/Source/tasks.o
 .bss.pxDelayedTaskList
                0x200006a8        0x4 project_build//C/mios32/trunk/FreeRTOS/Source/tasks.o
 .bss.xSchedulerRunning
                0x200006ac        0x4 project_build//C/mios32/trunk/FreeRTOS/Source/tasks.o
 .bss.uxTasksDeleted
                0x200006b0        0x4 project_build//C/mios32/trunk/FreeRTOS/Source/tasks.o
 .bss.xTasksWaitingTermination
                0x200006b4       0x14 project_build//C/mios32/trunk/FreeRTOS/Source/tasks.o
 .bss.xSuspendedTaskList
                0x200006c8       0x14 project_build//C/mios32/trunk/FreeRTOS/Source/tasks.o
 .bss.pxReadyTasksLists
                0x200006dc       0x64 project_build//C/mios32/trunk/FreeRTOS/Source/tasks.o
 .bss.uxSchedulerSuspended
                0x20000740        0x4 project_build//C/mios32/trunk/FreeRTOS/Source/tasks.o
 .bss.pxCurrentTCB
                0x20000744        0x4 project_build//C/mios32/trunk/FreeRTOS/Source/tasks.o
                0x20000744                pxCurrentTCB
 .bss.xPendingReadyList
                0x20000748       0x14 project_build//C/mios32/trunk/FreeRTOS/Source/tasks.o
 .bss.xTickCount
                0x2000075c        0x4 project_build//C/mios32/trunk/FreeRTOS/Source/tasks.o
 .bss.pxOverflowDelayedTaskList
                0x20000760        0x4 project_build//C/mios32/trunk/FreeRTOS/Source/tasks.o
 .bss.uxTopReadyPriority
                0x20000764        0x4 project_build//C/mios32/trunk/FreeRTOS/Source/tasks.o
 .bss.uxTaskNumber
                0x20000768        0x4 project_build//C/mios32/trunk/FreeRTOS/Source/tasks.o
 .bss.xDelayedTaskList1
                0x2000076c       0x14 project_build//C/mios32/trunk/FreeRTOS/Source/tasks.o
 .bss.xDelayedTaskList2
                0x20000780       0x14 project_build//C/mios32/trunk/FreeRTOS/Source/tasks.o
 .bss.xMissedYield
                0x20000794        0x4 project_build//C/mios32/trunk/FreeRTOS/Source/tasks.o
 .bss.uxCurrentNumberOfTasks
                0x20000798        0x4 project_build//C/mios32/trunk/FreeRTOS/Source/tasks.o
 .bss.uxTopUsedPriority
                0x2000079c        0x4 project_build//C/mios32/trunk/FreeRTOS/Source/tasks.o
 .bss.srio_scan_finished_hook
                0x200007a0        0x4 project_build//C/mios32/trunk/mios32/common/mios32_srio.o
 .bss.debounce_time
                0x200007a4        0x1 project_build//C/mios32/trunk/mios32/common/mios32_srio.o
 .bss.srio_values_transfered
                0x200007a5        0x1 project_build//C/mios32/trunk/mios32/common/mios32_srio.o
 .bss.debounce_ctr
                0x200007a6        0x1 project_build//C/mios32/trunk/mios32/common/mios32_srio.o
 .bss.mios32_lcd_device
                0x200007a7        0x1 project_build//C/mios32/trunk/mios32/common/mios32_lcd.o
                0x200007a7                mios32_lcd_device
 .bss.direct_tx_callback_func
                0x200007a8        0x4 project_build//C/mios32/trunk/mios32/common/mios32_midi.o
 .bss.sysex_cmd
                0x200007ac        0x1 project_build//C/mios32/trunk/mios32/common/mios32_midi.o
 *fill*         0x200007ad        0x3 00
 .bss.direct_rx_callback_func
                0x200007b0        0x4 project_build//C/mios32/trunk/mios32/common/mios32_midi.o
 .bss.last_sysex_port
                0x200007b4        0x1 project_build//C/mios32/trunk/mios32/common/mios32_midi.o
 .bss.sysex_device_id
                0x200007b5        0x1 project_build//C/mios32/trunk/mios32/common/mios32_midi.o
 .bss.sysex_timeout_ctr
                0x200007b6        0x2 project_build//C/mios32/trunk/mios32/common/mios32_midi.o
 .bss.query_req.6319
                0x200007b8        0x1 project_build//C/mios32/trunk/mios32/common/mios32_midi.o
 *fill*         0x200007b9        0x3 00
 .bss.sysex_state
                0x200007bc        0x8 project_build//C/mios32/trunk/mios32/common/mios32_midi.o
 .bss.debug_command_callback_func
                0x200007c4        0x4 project_build//C/mios32/trunk/mios32/common/mios32_midi.o
 .bss.sysex_timeout_ctr_flags
                0x200007c8        0x4 project_build//C/mios32/trunk/mios32/common/mios32_midi.o
 .bss.sysex_callback_func
                0x200007cc        0x4 project_build//C/mios32/trunk/mios32/common/mios32_midi.o
 .bss.timeout_callback_func
                0x200007d0        0x4 project_build//C/mios32/trunk/mios32/common/mios32_midi.o
 .bss.receive_callback_func
                0x200007d4        0x4 project_build//C/mios32/trunk/mios32/common/mios32_com.o
 .bss.rs_last   0x200007d8        0x4 project_build//C/mios32/trunk/mios32/common/mios32_uart_midi.o
 .bss.midi_rec  0x200007dc       0x18 project_build//C/mios32/trunk/mios32/common/mios32_uart_midi.o
 .bss.rs_optimisation
                0x200007f4        0x1 project_build//C/mios32/trunk/mios32/common/mios32_uart_midi.o
 *fill*         0x200007f5        0x3 00
 .bss.rs_expire_ctr
                0x200007f8        0x4 project_build//C/mios32/trunk/mios32/common/mios32_uart_midi.o
 .bss.prev_primask
                0x200007fc        0x4 project_build//C/mios32/trunk/mios32/STM32F10x/mios32_irq.o
 .bss.nested_ctr
                0x20000800        0x4 project_build//C/mios32/trunk/mios32/STM32F10x/mios32_irq.o
 .bss.spi_callback
                0x20000804        0xc project_build//C/mios32/trunk/mios32/STM32F10x/mios32_spi.o
 .bss.sw_spi2_mode
                0x20000810        0x1 project_build//C/mios32/trunk/mios32/STM32F10x/mios32_spi.o
 *fill*         0x20000811        0x1 00
 .bss.j5_enable_mask
                0x20000812        0x2 project_build//C/mios32/trunk/mios32/STM32F10x/mios32_board.o
 .bss.timer_callback
                0x20000814        0xc project_build//C/mios32/trunk/mios32/STM32F10x/mios32_timer.o
 .bss.ain_pin_values
                0x20000820       0x20 project_build//C/mios32/trunk/mios32/STM32F10x/mios32_ain.o
 .bss.oversampling_ctr
                0x20000840        0x1 project_build//C/mios32/trunk/mios32/STM32F10x/mios32_ain.o
 *fill*         0x20000841        0x3 00
 .bss.adc_conversion_values
                0x20000844       0x20 project_build//C/mios32/trunk/mios32/STM32F10x/mios32_ain.o
 .bss.mux_ctr   0x20000864        0x1 project_build//C/mios32/trunk/mios32/STM32F10x/mios32_ain.o
 *fill*         0x20000865        0x3 00
 .bss.ain_pin_idle_ctr
                0x20000868       0x20 project_build//C/mios32/trunk/mios32/STM32F10x/mios32_ain.o
 .bss.num_channels
                0x20000888        0x1 project_build//C/mios32/trunk/mios32/STM32F10x/mios32_ain.o
 *fill*         0x20000889        0x3 00
 .bss.service_prepare_callback
                0x2000088c        0x4 project_build//C/mios32/trunk/mios32/STM32F10x/mios32_ain.o
 .bss.num_used_channels
                0x20000890        0x1 project_build//C/mios32/trunk/mios32/STM32F10x/mios32_ain.o
 *fill*         0x20000891        0x3 00
 .bss.ain_pin_changed
                0x20000894        0x4 project_build//C/mios32/trunk/mios32/STM32F10x/mios32_ain.o
 .bss.bDeviceState
                0x20000898        0x4 project_build//C/mios32/trunk/mios32/STM32F10x/mios32_usb.o
 .bss.My_Device_Info
                0x2000089c       0x1c project_build//C/mios32/trunk/mios32/STM32F10x/mios32_usb.o
 .bss.rx_buffer_size
                0x200008b8        0x2 project_build//C/mios32/trunk/mios32/STM32F10x/mios32_usb_midi.o
 .bss.rx_buffer_tail
                0x200008ba        0x2 project_build//C/mios32/trunk/mios32/STM32F10x/mios32_usb_midi.o
 .bss.tx_buffer
                0x200008bc      0x100 project_build//C/mios32/trunk/mios32/STM32F10x/mios32_usb_midi.o
 .bss.tx_buffer_busy
                0x200009bc        0x1 project_build//C/mios32/trunk/mios32/STM32F10x/mios32_usb_midi.o
 *fill*         0x200009bd        0x3 00
 .bss.rx_buffer
                0x200009c0      0x100 project_build//C/mios32/trunk/mios32/STM32F10x/mios32_usb_midi.o
 .bss.rx_buffer_new_data
                0x20000ac0        0x1 project_build//C/mios32/trunk/mios32/STM32F10x/mios32_usb_midi.o
 *fill*         0x20000ac1        0x1 00
 .bss.rx_buffer_head
                0x20000ac2        0x2 project_build//C/mios32/trunk/mios32/STM32F10x/mios32_usb_midi.o
 .bss.tx_buffer_size
                0x20000ac4        0x2 project_build//C/mios32/trunk/mios32/STM32F10x/mios32_usb_midi.o
 .bss.tx_buffer_tail
                0x20000ac6        0x2 project_build//C/mios32/trunk/mios32/STM32F10x/mios32_usb_midi.o
 .bss.timeout_ctr.6139
                0x20000ac8        0x2 project_build//C/mios32/trunk/mios32/STM32F10x/mios32_usb_midi.o
 .bss.transfer_possible
                0x20000aca        0x1 project_build//C/mios32/trunk/mios32/STM32F10x/mios32_usb_midi.o
 *fill*         0x20000acb        0x1 00
 .bss.tx_buffer_head
                0x20000acc        0x2 project_build//C/mios32/trunk/mios32/STM32F10x/mios32_usb_midi.o
 *fill*         0x20000ace        0x2 00
 .bss.tx_buffer_tail
                0x20000ad0        0x4 project_build//C/mios32/trunk/mios32/STM32F10x/mios32_uart.o
 .bss.rx_buffer_size
                0x20000ad4        0x4 project_build//C/mios32/trunk/mios32/STM32F10x/mios32_uart.o
 .bss.rx_buffer_tail
                0x20000ad8        0x4 project_build//C/mios32/trunk/mios32/STM32F10x/mios32_uart.o
 .bss.tx_buffer
                0x20000adc       0x80 project_build//C/mios32/trunk/mios32/STM32F10x/mios32_uart.o
 .bss.rx_buffer
                0x20000b5c       0x80 project_build//C/mios32/trunk/mios32/STM32F10x/mios32_uart.o
 .bss.rx_buffer_head
                0x20000bdc        0x4 project_build//C/mios32/trunk/mios32/STM32F10x/mios32_uart.o
 .bss.tx_buffer_size
                0x20000be0        0x4 project_build//C/mios32/trunk/mios32/STM32F10x/mios32_uart.o
 .bss.uart_baudrate
                0x20000be4        0x8 project_build//C/mios32/trunk/mios32/STM32F10x/mios32_uart.o
 .bss.tx_buffer_head
                0x20000bec        0x4 project_build//C/mios32/trunk/mios32/STM32F10x/mios32_uart.o
 .bss.iic_rec   0x20000bf0       0x24 project_build//C/mios32/trunk/mios32/STM32F10x/mios32_iic.o
 .bss.Data_Mul_MaxPacketSize
                0x20000c14        0x1 project_build//C/mios32/trunk/drivers/STM32F10x/v3.3.0/STM32_USB-FS-Device_Driver/src/usb_core.o
                0x20000c14                Data_Mul_MaxPacketSize
 *fill*         0x20000c15        0x3 00
 .bss.display_available
                0x20000c18        0x4 project_build//C/mios32/trunk/modules/app_lcd/clcd/app_lcd.o
 *(COMMON)
 COMMON         0x20000c1c        0xc project_build/app.o
                0x20000c1c                last_velocity
                0x20000c20                selected_midi_port
                0x20000c24                no_velocity
 COMMON         0x20000c28     0x2808 project_build//C/mios32/trunk/FreeRTOS/Source/portable/MemMang/umm_malloc.o
                0x20000c28                heapInfo
                0x20000c34                umm_heap
 COMMON         0x20003430       0x40 project_build//C/mios32/trunk/mios32/common/mios32_srio.o
                0x20003430                mios32_srio_din_changed
                0x20003440                mios32_srio_dout
                0x20003450                mios32_srio_din_buffer
                0x20003460                mios32_srio_din
 COMMON         0x20003470      0x300 project_build//C/mios32/trunk/mios32/common/mios32_enc.o
                0x20003470                enc_config
                0x20003570                enc_state
 COMMON         0x20003770       0x1a project_build//C/mios32/trunk/mios32/common/mios32_lcd.o
                0x20003770                font_bitmap
                0x2000377c                mios32_lcd_y
                0x2000377e                mios32_lcd_column
                0x20003780                mios32_lcd_cursor_map
                0x20003784                mios32_lcd_line
                0x20003786                mios32_lcd_type
                0x20003788                mios32_lcd_x
 *fill*         0x2000378a        0x2 00
 COMMON         0x2000378c        0xe project_build//C/mios32/trunk/mios32/STM32F10x/mios32_usb.o
                0x2000378c                pProperty
                0x20003790                pUser_Standard_Requests
                0x20003794                pInformation
                0x20003798                Device_Table
 *fill*         0x2000379a        0x2 00
 COMMON         0x2000379c        0x4 project_build//C/mios32/trunk/mios32/STM32F10x/mios32_iic.o
                0x2000379c                MIOS32_IIC_unexpected_event
 COMMON         0x200037a0        0x2 project_build//C/mios32/trunk/drivers/STM32F10x/v3.3.0/STM32_USB-FS-Device_Driver/src/usb_core.o
                0x200037a0                StatusInfo
 COMMON         0x200037a2        0x4 project_build//C/mios32/trunk/drivers/STM32F10x/v3.3.0/STM32_USB-FS-Device_Driver/src/usb_int.o
                0x200037a2                SaveRState
                0x200037a4                SaveTState
                0x200037a8                . = ALIGN (0x8)
 *fill*         0x200037a6        0x2 00
 *(.ram.b)
                0x200037a8                . = ALIGN (0x4)
                0x200037a8                _ebss = .
                0x200037a8                _end = .
                0x200037a8                __end = .
                0x200037a8                PROVIDE (end, _ebss)
                0x200037a8                PROVIDE (_end, _ebss)
                0x20000058                PROVIDE (__bss_start__, _sbss)
                0x200037a8                PROVIDE (__bss_end__, _ebss)

._usrstack      0x200037a8      0x100 load address 0x0800b0c0
                0x200037a8                . = ALIGN (0x4)
                0x200037a8                _susrstack = .
                0x200038a8                . = (. + _Minimum_Stack_Size)
 *fill*         0x200037a8      0x100 00
                0x200038a8                . = ALIGN (0x4)
                0x200038a8                _eusrstack = .

.b1text
 *(.b1text)
 *(.b1rodata)
 *(.b1rodata*)

.eb0text
 *(.eb0text)
 *(.eb0rodata)
 *(.eb0rodata*)

.eb1text
 *(.eb1text)
 *(.eb1rodata)
 *(.eb1rodata*)

.eb2text
 *(.eb2text)
 *(.eb2rodata)
 *(.eb2rodata*)

.eb3text
 *(.eb3text)
 *(.eb3rodata)
 *(.eb3rodata*)

/DISCARD/
 libc.a(*)
 libm.a(*)
 libgcc.a(*)

.stab
 *(.stab)

.stabstr
 *(.stabstr)

.stab.excl
 *(.stab.excl)

.stab.exclstr
 *(.stab.exclstr)

.stab.index
 *(.stab.index)

.stab.indexstr
 *(.stab.indexstr)

.ARM.attributes
                0x00000000       0x31
 .ARM.attributes
                0x00000000       0x31 project_build/app.o
 .ARM.attributes
                0x00000031       0x31 project_build//C/mios32/trunk/programming_models/traditional/main.o
 .ARM.attributes
                0x00000062       0x31 project_build//C/mios32/trunk/FreeRTOS/Source/tasks.o
 .ARM.attributes
                0x00000093       0x31 project_build//C/mios32/trunk/FreeRTOS/Source/list.o
 .ARM.attributes
                0x000000c4       0x31 project_build//C/mios32/trunk/FreeRTOS/Source/queue.o
 .ARM.attributes
                0x000000f5       0x31 project_build//C/mios32/trunk/FreeRTOS/Source/portable/GCC/ARM_CM3/port.o
 .ARM.attributes
                0x00000126       0x31 project_build//C/mios32/trunk/FreeRTOS/Source/portable/MemMang/umm_malloc.o
 .ARM.attributes
                0x00000157       0x31 project_build//C/mios32/trunk/programming_models/traditional/startup_stm32f10x_hd.o
 .ARM.attributes
                0x00000188       0x31 project_build//C/mios32/trunk/mios32/common/mios32_srio.o
 .ARM.attributes
                0x000001b9       0x31 project_build//C/mios32/trunk/mios32/common/mios32_din.o
 .ARM.attributes
                0x000001ea       0x31 project_build//C/mios32/trunk/mios32/common/mios32_dout.o
 .ARM.attributes
                0x0000021b       0x31 project_build//C/mios32/trunk/mios32/common/mios32_enc.o
 .ARM.attributes
                0x0000024c       0x31 project_build//C/mios32/trunk/mios32/common/mios32_lcd.o
 .ARM.attributes
                0x0000027d       0x31 project_build//C/mios32/trunk/mios32/common/mios32_midi.o
 .ARM.attributes
                0x000002ae       0x31 project_build//C/mios32/trunk/mios32/common/mios32_osc.o
 .ARM.attributes
                0x000002df       0x31 project_build//C/mios32/trunk/mios32/common/mios32_com.o
 .ARM.attributes
                0x00000310       0x31 project_build//C/mios32/trunk/mios32/common/mios32_uart_midi.o
 .ARM.attributes
                0x00000341       0x31 project_build//C/mios32/trunk/mios32/common/mios32_iic_midi.o
 .ARM.attributes
                0x00000372       0x31 project_build//C/mios32/trunk/mios32/common/mios32_iic_bs.o
 .ARM.attributes
                0x000003a3       0x31 project_build//C/mios32/trunk/mios32/common/mios32_mf.o
 .ARM.attributes
                0x000003d4       0x31 project_build//C/mios32/trunk/mios32/common/mios32_sdcard.o
 .ARM.attributes
                0x00000405       0x31 project_build//C/mios32/trunk/mios32/common/mios32_enc28j60.o
 .ARM.attributes
                0x00000436       0x31 project_build//C/mios32/trunk/mios32/STM32F10x/mios32_bsl.o
 .ARM.attributes
                0x00000467       0x31 project_build//C/mios32/trunk/mios32/STM32F10x/mios32_sys.o
 .ARM.attributes
                0x00000498       0x31 project_build//C/mios32/trunk/mios32/STM32F10x/mios32_irq.o
 .ARM.attributes
                0x000004c9       0x31 project_build//C/mios32/trunk/mios32/STM32F10x/mios32_spi.o
 .ARM.attributes
                0x000004fa       0x31 project_build//C/mios32/trunk/mios32/STM32F10x/mios32_i2s.o
 .ARM.attributes
                0x0000052b       0x31 project_build//C/mios32/trunk/mios32/STM32F10x/mios32_board.o
 .ARM.attributes
                0x0000055c       0x31 project_build//C/mios32/trunk/mios32/STM32F10x/mios32_timer.o
 .ARM.attributes
                0x0000058d       0x31 project_build//C/mios32/trunk/mios32/STM32F10x/mios32_stopwatch.o
 .ARM.attributes
                0x000005be       0x31 project_build//C/mios32/trunk/mios32/STM32F10x/mios32_delay.o
 .ARM.attributes
                0x000005ef       0x31 project_build//C/mios32/trunk/mios32/STM32F10x/mios32_ain.o
 .ARM.attributes
                0x00000620       0x31 project_build//C/mios32/trunk/mios32/STM32F10x/mios32_usb.o
 .ARM.attributes
                0x00000651       0x31 project_build//C/mios32/trunk/mios32/STM32F10x/mios32_usb_midi.o
 .ARM.attributes
                0x00000682       0x31 project_build//C/mios32/trunk/mios32/STM32F10x/mios32_usb_com.o
 .ARM.attributes
                0x000006b3       0x31 project_build//C/mios32/trunk/mios32/STM32F10x/mios32_uart.o
 .ARM.attributes
                0x000006e4       0x31 project_build//C/mios32/trunk/mios32/STM32F10x/mios32_iic.o
 .ARM.attributes
                0x00000715       0x31 project_build//C/mios32/trunk/mios32/common/printf-stdarg.o
 .ARM.attributes
                0x00000746       0x31 project_build//C/mios32/trunk/drivers/STM32F10x/v3.3.0/STM32F10x_StdPeriph_Driver/src/stm32f10x_gpio.o
 .ARM.attributes
                0x00000777       0x31 project_build//C/mios32/trunk/drivers/STM32F10x/v3.3.0/STM32F10x_StdPeriph_Driver/src/stm32f10x_flash.o
 .ARM.attributes
                0x000007a8       0x31 project_build//C/mios32/trunk/drivers/STM32F10x/v3.3.0/STM32F10x_StdPeriph_Driver/src/stm32f10x_adc.o
 .ARM.attributes
                0x000007d9       0x31 project_build//C/mios32/trunk/drivers/STM32F10x/v3.3.0/STM32F10x_StdPeriph_Driver/src/stm32f10x_dac.o
 .ARM.attributes
                0x0000080a       0x31 project_build//C/mios32/trunk/drivers/STM32F10x/v3.3.0/STM32F10x_StdPeriph_Driver/src/stm32f10x_spi.o
 .ARM.attributes
                0x0000083b       0x31 project_build//C/mios32/trunk/drivers/STM32F10x/v3.3.0/STM32F10x_StdPeriph_Driver/src/stm32f10x_usart.o
 .ARM.attributes
                0x0000086c       0x31 project_build//C/mios32/trunk/drivers/STM32F10x/v3.3.0/STM32F10x_StdPeriph_Driver/src/stm32f10x_i2c.o
 .ARM.attributes
                0x0000089d       0x31 project_build//C/mios32/trunk/drivers/STM32F10x/v3.3.0/STM32F10x_StdPeriph_Driver/src/stm32f10x_dma.o
 .ARM.attributes
                0x000008ce       0x31 project_build//C/mios32/trunk/drivers/STM32F10x/v3.3.0/STM32F10x_StdPeriph_Driver/src/stm32f10x_tim.o
 .ARM.attributes
                0x000008ff       0x31 project_build//C/mios32/trunk/drivers/STM32F10x/v3.3.0/STM32F10x_StdPeriph_Driver/src/stm32f10x_rcc.o
 .ARM.attributes
                0x00000930       0x31 project_build//C/mios32/trunk/drivers/STM32F10x/v3.3.0/STM32F10x_StdPeriph_Driver/src/stm32f10x_rtc.o
 .ARM.attributes
                0x00000961       0x31 project_build//C/mios32/trunk/drivers/STM32F10x/v3.3.0/STM32F10x_StdPeriph_Driver/src/stm32f10x_bkp.o
 .ARM.attributes
                0x00000992       0x31 project_build//C/mios32/trunk/drivers/STM32F10x/v3.3.0/STM32F10x_StdPeriph_Driver/src/stm32f10x_pwr.o
 .ARM.attributes
                0x000009c3       0x31 project_build//C/mios32/trunk/drivers/STM32F10x/v3.3.0/STM32F10x_StdPeriph_Driver/src/stm32f10x_exti.o
 .ARM.attributes
                0x000009f4       0x31 project_build//C/mios32/trunk/drivers/STM32F10x/v3.3.0/STM32F10x_StdPeriph_Driver/src/misc.o
 .ARM.attributes
                0x00000a25       0x31 project_build//C/mios32/trunk/drivers/STM32F10x/v3.3.0/CMSIS/CM3/CoreSupport/core_cm3.o
 .ARM.attributes
                0x00000a56       0x31 project_build//C/mios32/trunk/drivers/STM32F10x/v3.3.0/STM32_USB-FS-Device_Driver/src/usb_core.o
 .ARM.attributes
                0x00000a87       0x31 project_build//C/mios32/trunk/drivers/STM32F10x/v3.3.0/STM32_USB-FS-Device_Driver/src/usb_int.o
 .ARM.attributes
                0x00000ab8       0x31 project_build//C/mios32/trunk/drivers/STM32F10x/v3.3.0/STM32_USB-FS-Device_Driver/src/usb_mem.o
 .ARM.attributes
                0x00000ae9       0x31 project_build//C/mios32/trunk/drivers/STM32F10x/v3.3.0/STM32_USB-FS-Device_Driver/src/usb_regs.o
 .ARM.attributes
                0x00000b1a       0x31 project_build//C/mios32/trunk/drivers/STM32F10x/v3.3.0/STM32_USB-FS-Device_Driver/src/otgd_fs_cal.o
 .ARM.attributes
                0x00000b4b       0x31 project_build//C/mios32/trunk/drivers/STM32F10x/v3.3.0/STM32_USB-FS-Device_Driver/src/otgd_fs_dev.o
 .ARM.attributes
                0x00000b7c       0x31 project_build//C/mios32/trunk/drivers/STM32F10x/v3.3.0/STM32_USB-FS-Device_Driver/src/otgd_fs_int.o
 .ARM.attributes
                0x00000bad       0x31 project_build//C/mios32/trunk/drivers/STM32F10x/v3.3.0/STM32_USB-FS-Device_Driver/src/otgd_fs_pcd.o
 .ARM.attributes
                0x00000bde       0x31 project_build//C/mios32/trunk/modules/app_lcd/clcd/app_lcd.o
 .ARM.attributes
                0x00000c0f       0x31 project_build//C/mios32/trunk/programming_models/traditional/mini_cpp.o
 .ARM.attributes
                0x00000c40       0x31 project_build//C/mios32/trunk/programming_models/traditional/freertos_heap.o
 .ARM.attributes
                0x00000c71       0x19 c:/mios32_toolchain/bin/../lib/gcc/arm-none-eabi/4.5.1/thumb/v7m\libgcc.a(_arm_muldivdf3.o)
 .ARM.attributes
                0x00000c8a       0x19 c:/mios32_toolchain/bin/../lib/gcc/arm-none-eabi/4.5.1/thumb/v7m\libgcc.a(_arm_fixdfsi.o)
 .ARM.attributes
                0x00000ca3       0x19 c:/mios32_toolchain/bin/../lib/gcc/arm-none-eabi/4.5.1/thumb/v7m\libgcc.a(_arm_muldivsf3.o)
 .ARM.attributes
                0x00000cbc       0x19 c:/mios32_toolchain/bin/../lib/gcc/arm-none-eabi/4.5.1/thumb/v7m\libgcc.a(_arm_fixsfsi.o)
 .ARM.attributes
                0x00000cd5       0x31 c:/mios32_toolchain/bin/../lib/gcc/arm-none-eabi/4.5.1/../../../../arm-none-eabi/lib/thumb/v7m\libg.a(lib_a-init.o)
 .ARM.attributes
                0x00000d06       0x31 c:/mios32_toolchain/bin/../lib/gcc/arm-none-eabi/4.5.1/../../../../arm-none-eabi/lib/thumb/v7m\libg.a(lib_a-memcpy.o)
 .ARM.attributes
                0x00000d37       0x31 c:/mios32_toolchain/bin/../lib/gcc/arm-none-eabi/4.5.1/../../../../arm-none-eabi/lib/thumb/v7m\libg.a(lib_a-memmove.o)
 .ARM.attributes
                0x00000d68       0x31 c:/mios32_toolchain/bin/../lib/gcc/arm-none-eabi/4.5.1/../../../../arm-none-eabi/lib/thumb/v7m\libg.a(lib_a-memset.o)
 .ARM.attributes
                0x00000d99       0x31 c:/mios32_toolchain/bin/../lib/gcc/arm-none-eabi/4.5.1/../../../../arm-none-eabi/lib/thumb/v7m\libg.a(lib_a-stpcpy.o)
 .ARM.attributes
                0x00000dca       0x31 c:/mios32_toolchain/bin/../lib/gcc/arm-none-eabi/4.5.1/../../../../arm-none-eabi/lib/thumb/v7m\libg.a(lib_a-strcpy.o)
 .ARM.attributes
                0x00000dfb       0x31 c:/mios32_toolchain/bin/../lib/gcc/arm-none-eabi/4.5.1/../../../../arm-none-eabi/lib/thumb/v7m\libg.a(lib_a-strlen.o)
 .ARM.attributes
                0x00000e2c       0x31 c:/mios32_toolchain/bin/../lib/gcc/arm-none-eabi/4.5.1/../../../../arm-none-eabi/lib/thumb/v7m\libg.a(lib_a-strncmp.o)
 .ARM.attributes
                0x00000e5d       0x31 c:/mios32_toolchain/bin/../lib/gcc/arm-none-eabi/4.5.1/../../../../arm-none-eabi/lib/thumb/v7m\libg.a(lib_a-strncpy.o)

.comment        0x00000000       0x11
 *(.comment)
 .comment       0x00000000       0x11 project_build/app.o
                                 0x12 (size before relaxing)
 .comment       0x00000000       0x12 project_build//C/mios32/trunk/programming_models/traditional/main.o
 .comment       0x00000000       0x12 project_build//C/mios32/trunk/FreeRTOS/Source/tasks.o
 .comment       0x00000000       0x12 project_build//C/mios32/trunk/FreeRTOS/Source/list.o
 .comment       0x00000000       0x12 project_build//C/mios32/trunk/FreeRTOS/Source/queue.o
 .comment       0x00000000       0x12 project_build//C/mios32/trunk/FreeRTOS/Source/portable/GCC/ARM_CM3/port.o
 .comment       0x00000000       0x12 project_build//C/mios32/trunk/FreeRTOS/Source/portable/MemMang/umm_malloc.o
 .comment       0x00000000       0x12 project_build//C/mios32/trunk/programming_models/traditional/startup_stm32f10x_hd.o
 .comment       0x00000000       0x12 project_build//C/mios32/trunk/mios32/common/mios32_srio.o
 .comment       0x00000000       0x12 project_build//C/mios32/trunk/mios32/common/mios32_din.o
 .comment       0x00000000       0x12 project_build//C/mios32/trunk/mios32/common/mios32_dout.o
 .comment       0x00000000       0x12 project_build//C/mios32/trunk/mios32/common/mios32_enc.o
 .comment       0x00000000       0x12 project_build//C/mios32/trunk/mios32/common/mios32_lcd.o
 .comment       0x00000000       0x12 project_build//C/mios32/trunk/mios32/common/mios32_midi.o
 .comment       0x00000000       0x12 project_build//C/mios32/trunk/mios32/common/mios32_osc.o
 .comment       0x00000000       0x12 project_build//C/mios32/trunk/mios32/common/mios32_com.o
 .comment       0x00000000       0x12 project_build//C/mios32/trunk/mios32/common/mios32_uart_midi.o
 .comment       0x00000000       0x12 project_build//C/mios32/trunk/mios32/common/mios32_iic_midi.o
 .comment       0x00000000       0x12 project_build//C/mios32/trunk/mios32/common/mios32_iic_bs.o
 .comment       0x00000000       0x12 project_build//C/mios32/trunk/mios32/common/mios32_mf.o
 .comment       0x00000000       0x12 project_build//C/mios32/trunk/mios32/common/mios32_sdcard.o
 .comment       0x00000000       0x12 project_build//C/mios32/trunk/mios32/common/mios32_enc28j60.o
 .comment       0x00000000       0x12 project_build//C/mios32/trunk/mios32/STM32F10x/mios32_bsl.o
 .comment       0x00000000       0x12 project_build//C/mios32/trunk/mios32/STM32F10x/mios32_sys.o
 .comment       0x00000000       0x12 project_build//C/mios32/trunk/mios32/STM32F10x/mios32_irq.o
 .comment       0x00000000       0x12 project_build//C/mios32/trunk/mios32/STM32F10x/mios32_spi.o
 .comment       0x00000000       0x12 project_build//C/mios32/trunk/mios32/STM32F10x/mios32_i2s.o
 .comment       0x00000000       0x12 project_build//C/mios32/trunk/mios32/STM32F10x/mios32_board.o
 .comment       0x00000000       0x12 project_build//C/mios32/trunk/mios32/STM32F10x/mios32_timer.o
 .comment       0x00000000       0x12 project_build//C/mios32/trunk/mios32/STM32F10x/mios32_stopwatch.o
 .comment       0x00000000       0x12 project_build//C/mios32/trunk/mios32/STM32F10x/mios32_delay.o
 .comment       0x00000000       0x12 project_build//C/mios32/trunk/mios32/STM32F10x/mios32_ain.o
 .comment       0x00000000       0x12 project_build//C/mios32/trunk/mios32/STM32F10x/mios32_usb.o
 .comment       0x00000000       0x12 project_build//C/mios32/trunk/mios32/STM32F10x/mios32_usb_midi.o
 .comment       0x00000000       0x12 project_build//C/mios32/trunk/mios32/STM32F10x/mios32_usb_com.o
 .comment       0x00000000       0x12 project_build//C/mios32/trunk/mios32/STM32F10x/mios32_uart.o
 .comment       0x00000000       0x12 project_build//C/mios32/trunk/mios32/STM32F10x/mios32_iic.o
 .comment       0x00000000       0x12 project_build//C/mios32/trunk/mios32/common/printf-stdarg.o
 .comment       0x00000000       0x12 project_build//C/mios32/trunk/drivers/STM32F10x/v3.3.0/STM32F10x_StdPeriph_Driver/src/stm32f10x_gpio.o
 .comment       0x00000000       0x12 project_build//C/mios32/trunk/drivers/STM32F10x/v3.3.0/STM32F10x_StdPeriph_Driver/src/stm32f10x_flash.o
 .comment       0x00000000       0x12 project_build//C/mios32/trunk/drivers/STM32F10x/v3.3.0/STM32F10x_StdPeriph_Driver/src/stm32f10x_adc.o
 .comment       0x00000000       0x12 project_build//C/mios32/trunk/drivers/STM32F10x/v3.3.0/STM32F10x_StdPeriph_Driver/src/stm32f10x_dac.o
 .comment       0x00000000       0x12 project_build//C/mios32/trunk/drivers/STM32F10x/v3.3.0/STM32F10x_StdPeriph_Driver/src/stm32f10x_spi.o
 .comment       0x00000000       0x12 project_build//C/mios32/trunk/drivers/STM32F10x/v3.3.0/STM32F10x_StdPeriph_Driver/src/stm32f10x_usart.o
 .comment       0x00000000       0x12 project_build//C/mios32/trunk/drivers/STM32F10x/v3.3.0/STM32F10x_StdPeriph_Driver/src/stm32f10x_i2c.o
 .comment       0x00000000       0x12 project_build//C/mios32/trunk/drivers/STM32F10x/v3.3.0/STM32F10x_StdPeriph_Driver/src/stm32f10x_dma.o
 .comment       0x00000000       0x12 project_build//C/mios32/trunk/drivers/STM32F10x/v3.3.0/STM32F10x_StdPeriph_Driver/src/stm32f10x_tim.o
 .comment       0x00000000       0x12 project_build//C/mios32/trunk/drivers/STM32F10x/v3.3.0/STM32F10x_StdPeriph_Driver/src/stm32f10x_rcc.o
 .comment       0x00000000       0x12 project_build//C/mios32/trunk/drivers/STM32F10x/v3.3.0/STM32F10x_StdPeriph_Driver/src/stm32f10x_rtc.o
 .comment       0x00000000       0x12 project_build//C/mios32/trunk/drivers/STM32F10x/v3.3.0/STM32F10x_StdPeriph_Driver/src/stm32f10x_bkp.o
 .comment       0x00000000       0x12 project_build//C/mios32/trunk/drivers/STM32F10x/v3.3.0/STM32F10x_StdPeriph_Driver/src/stm32f10x_pwr.o
 .comment       0x00000000       0x12 project_build//C/mios32/trunk/drivers/STM32F10x/v3.3.0/STM32F10x_StdPeriph_Driver/src/stm32f10x_exti.o
 .comment       0x00000000       0x12 project_build//C/mios32/trunk/drivers/STM32F10x/v3.3.0/STM32F10x_StdPeriph_Driver/src/misc.o
 .comment       0x00000000       0x12 project_build//C/mios32/trunk/drivers/STM32F10x/v3.3.0/CMSIS/CM3/CoreSupport/core_cm3.o
 .comment       0x00000000       0x12 project_build//C/mios32/trunk/drivers/STM32F10x/v3.3.0/STM32_USB-FS-Device_Driver/src/usb_core.o
 .comment       0x00000000       0x12 project_build//C/mios32/trunk/drivers/STM32F10x/v3.3.0/STM32_USB-FS-Device_Driver/src/usb_int.o
 .comment       0x00000000       0x12 project_build//C/mios32/trunk/drivers/STM32F10x/v3.3.0/STM32_USB-FS-Device_Driver/src/usb_mem.o
 .comment       0x00000000       0x12 project_build//C/mios32/trunk/drivers/STM32F10x/v3.3.0/STM32_USB-FS-Device_Driver/src/usb_regs.o
 .comment       0x00000000       0x12 project_build//C/mios32/trunk/drivers/STM32F10x/v3.3.0/STM32_USB-FS-Device_Driver/src/otgd_fs_cal.o
 .comment       0x00000000       0x12 project_build//C/mios32/trunk/drivers/STM32F10x/v3.3.0/STM32_USB-FS-Device_Driver/src/otgd_fs_dev.o
 .comment       0x00000000       0x12 project_build//C/mios32/trunk/drivers/STM32F10x/v3.3.0/STM32_USB-FS-Device_Driver/src/otgd_fs_int.o
 .comment       0x00000000       0x12 project_build//C/mios32/trunk/drivers/STM32F10x/v3.3.0/STM32_USB-FS-Device_Driver/src/otgd_fs_pcd.o
 .comment       0x00000000       0x12 project_build//C/mios32/trunk/modules/app_lcd/clcd/app_lcd.o
 .comment       0x00000000       0x12 project_build//C/mios32/trunk/programming_models/traditional/mini_cpp.o
 .comment       0x00000000       0x12 project_build//C/mios32/trunk/programming_models/traditional/freertos_heap.o
 .comment       0x00000000       0x12 c:/mios32_toolchain/bin/../lib/gcc/arm-none-eabi/4.5.1/../../../../arm-none-eabi/lib/thumb/v7m\libg.a(lib_a-init.o)
 .comment       0x00000000       0x12 c:/mios32_toolchain/bin/../lib/gcc/arm-none-eabi/4.5.1/../../../../arm-none-eabi/lib/thumb/v7m\libg.a(lib_a-memcpy.o)
 .comment       0x00000000       0x12 c:/mios32_toolchain/bin/../lib/gcc/arm-none-eabi/4.5.1/../../../../arm-none-eabi/lib/thumb/v7m\libg.a(lib_a-memmove.o)
 .comment       0x00000000       0x12 c:/mios32_toolchain/bin/../lib/gcc/arm-none-eabi/4.5.1/../../../../arm-none-eabi/lib/thumb/v7m\libg.a(lib_a-memset.o)
 .comment       0x00000000       0x12 c:/mios32_toolchain/bin/../lib/gcc/arm-none-eabi/4.5.1/../../../../arm-none-eabi/lib/thumb/v7m\libg.a(lib_a-stpcpy.o)
 .comment       0x00000000       0x12 c:/mios32_toolchain/bin/../lib/gcc/arm-none-eabi/4.5.1/../../../../arm-none-eabi/lib/thumb/v7m\libg.a(lib_a-strcpy.o)
 .comment       0x00000000       0x12 c:/mios32_toolchain/bin/../lib/gcc/arm-none-eabi/4.5.1/../../../../arm-none-eabi/lib/thumb/v7m\libg.a(lib_a-strlen.o)
 .comment       0x00000000       0x12 c:/mios32_toolchain/bin/../lib/gcc/arm-none-eabi/4.5.1/../../../../arm-none-eabi/lib/thumb/v7m\libg.a(lib_a-strncmp.o)
 .comment       0x00000000       0x12 c:/mios32_toolchain/bin/../lib/gcc/arm-none-eabi/4.5.1/../../../../arm-none-eabi/lib/thumb/v7m\libg.a(lib_a-strncpy.o)

.debug
 *(.debug)

.line
 *(.line)

.debug_srcinfo
 *(.debug_srcinfo)

.debug_sfnames
 *(.debug_sfnames)

.debug_aranges  0x00000000     0x21c8
 *(.debug_aranges)
 .debug_aranges
                0x00000000       0x68 project_build/app.o
 .debug_aranges
                0x00000068       0x70 project_build//C/mios32/trunk/programming_models/traditional/main.o
 .debug_aranges
                0x000000d8       0xf8 project_build//C/mios32/trunk/FreeRTOS/Source/tasks.o
 .debug_aranges
                0x000001d0       0x40 project_build//C/mios32/trunk/FreeRTOS/Source/list.o
 .debug_aranges
                0x00000210       0x98 project_build//C/mios32/trunk/FreeRTOS/Source/queue.o
 .debug_aranges
                0x000002a8       0x68 project_build//C/mios32/trunk/FreeRTOS/Source/portable/GCC/ARM_CM3/port.o
 .debug_aranges
                0x00000310       0x50 project_build//C/mios32/trunk/FreeRTOS/Source/portable/MemMang/umm_malloc.o
 .debug_aranges
                0x00000360       0x30 project_build//C/mios32/trunk/programming_models/traditional/startup_stm32f10x_hd.o
 .debug_aranges
                0x00000390       0x48 project_build//C/mios32/trunk/mios32/common/mios32_srio.o
 .debug_aranges
                0x000003d8       0x40 project_build//C/mios32/trunk/mios32/common/mios32_din.o
 .debug_aranges
                0x00000418       0x40 project_build//C/mios32/trunk/mios32/common/mios32_dout.o
 .debug_aranges
                0x00000458       0x50 project_build//C/mios32/trunk/mios32/common/mios32_enc.o
 .debug_aranges
                0x000004a8       0xc0 project_build//C/mios32/trunk/mios32/common/mios32_lcd.o
 .debug_aranges
                0x00000568      0x1a8 project_build//C/mios32/trunk/mios32/common/mios32_midi.o
 .debug_aranges
                0x00000710       0xf0 project_build//C/mios32/trunk/mios32/common/mios32_osc.o
 .debug_aranges
                0x00000800       0x98 project_build//C/mios32/trunk/mios32/common/mios32_com.o
 .debug_aranges
                0x00000898       0x60 project_build//C/mios32/trunk/mios32/common/mios32_uart_midi.o
 .debug_aranges
                0x000008f8       0x70 project_build//C/mios32/trunk/mios32/common/mios32_iic_midi.o
 .debug_aranges
                0x00000968       0x48 project_build//C/mios32/trunk/mios32/common/mios32_iic_bs.o
 .debug_aranges
                0x000009b0       0x60 project_build//C/mios32/trunk/mios32/common/mios32_mf.o
 .debug_aranges
                0x00000a10       0x60 project_build//C/mios32/trunk/mios32/common/mios32_sdcard.o
 .debug_aranges
                0x00000a70       0xd8 project_build//C/mios32/trunk/mios32/common/mios32_enc28j60.o
 .debug_aranges
                0x00000b48       0x60 project_build//C/mios32/trunk/mios32/STM32F10x/mios32_sys.o
 .debug_aranges
                0x00000ba8       0x38 project_build//C/mios32/trunk/mios32/STM32F10x/mios32_irq.o
 .debug_aranges
                0x00000be0       0x58 project_build//C/mios32/trunk/mios32/STM32F10x/mios32_spi.o
 .debug_aranges
                0x00000c38       0xd0 project_build//C/mios32/trunk/mios32/STM32F10x/mios32_board.o
 .debug_aranges
                0x00000d08       0x48 project_build//C/mios32/trunk/mios32/STM32F10x/mios32_timer.o
 .debug_aranges
                0x00000d50       0x30 project_build//C/mios32/trunk/mios32/STM32F10x/mios32_stopwatch.o
 .debug_aranges
                0x00000d80       0x28 project_build//C/mios32/trunk/mios32/STM32F10x/mios32_delay.o
 .debug_aranges
                0x00000da8       0x40 project_build//C/mios32/trunk/mios32/STM32F10x/mios32_ain.o
 .debug_aranges
                0x00000de8       0x88 project_build//C/mios32/trunk/mios32/STM32F10x/mios32_usb.o
 .debug_aranges
                0x00000e70       0x70 project_build//C/mios32/trunk/mios32/STM32F10x/mios32_usb_midi.o
 .debug_aranges
                0x00000ee0       0xa8 project_build//C/mios32/trunk/mios32/STM32F10x/mios32_uart.o
 .debug_aranges
                0x00000f88       0x68 project_build//C/mios32/trunk/mios32/STM32F10x/mios32_iic.o
 .debug_aranges
                0x00000ff0       0x60 project_build//C/mios32/trunk/mios32/common/printf-stdarg.o
 .debug_aranges
                0x00001050       0xa8 project_build//C/mios32/trunk/drivers/STM32F10x/v3.3.0/STM32F10x_StdPeriph_Driver/src/stm32f10x_gpio.o
 .debug_aranges
                0x000010f8       0xf8 project_build//C/mios32/trunk/drivers/STM32F10x/v3.3.0/STM32F10x_StdPeriph_Driver/src/stm32f10x_flash.o
 .debug_aranges
                0x000011f0      0x138 project_build//C/mios32/trunk/drivers/STM32F10x/v3.3.0/STM32F10x_StdPeriph_Driver/src/stm32f10x_adc.o
 .debug_aranges
                0x00001328       0x78 project_build//C/mios32/trunk/drivers/STM32F10x/v3.3.0/STM32F10x_StdPeriph_Driver/src/stm32f10x_dac.o
 .debug_aranges
                0x000013a0       0xd0 project_build//C/mios32/trunk/drivers/STM32F10x/v3.3.0/STM32F10x_StdPeriph_Driver/src/stm32f10x_spi.o
 .debug_aranges
                0x00001470      0x100 project_build//C/mios32/trunk/drivers/STM32F10x/v3.3.0/STM32F10x_StdPeriph_Driver/src/stm32f10x_usart.o
 .debug_aranges
                0x00001570      0x118 project_build//C/mios32/trunk/drivers/STM32F10x/v3.3.0/STM32F10x_StdPeriph_Driver/src/stm32f10x_i2c.o
 .debug_aranges
                0x00001688       0x68 project_build//C/mios32/trunk/drivers/STM32F10x/v3.3.0/STM32F10x_StdPeriph_Driver/src/stm32f10x_dma.o
 .debug_aranges
                0x000016f0      0x2d8 project_build//C/mios32/trunk/drivers/STM32F10x/v3.3.0/STM32F10x_StdPeriph_Driver/src/stm32f10x_tim.o
 .debug_aranges
                0x000019c8      0x118 project_build//C/mios32/trunk/drivers/STM32F10x/v3.3.0/STM32F10x_StdPeriph_Driver/src/stm32f10x_rcc.o
 .debug_aranges
                0x00001ae0       0x88 project_build//C/mios32/trunk/drivers/STM32F10x/v3.3.0/STM32F10x_StdPeriph_Driver/src/stm32f10x_rtc.o
 .debug_aranges
                0x00001b68       0x78 project_build//C/mios32/trunk/drivers/STM32F10x/v3.3.0/STM32F10x_StdPeriph_Driver/src/stm32f10x_bkp.o
 .debug_aranges
                0x00001be0       0x60 project_build//C/mios32/trunk/drivers/STM32F10x/v3.3.0/STM32F10x_StdPeriph_Driver/src/stm32f10x_pwr.o
 .debug_aranges
                0x00001c40       0x58 project_build//C/mios32/trunk/drivers/STM32F10x/v3.3.0/STM32F10x_StdPeriph_Driver/src/stm32f10x_exti.o
 .debug_aranges
                0x00001c98       0x40 project_build//C/mios32/trunk/drivers/STM32F10x/v3.3.0/STM32F10x_StdPeriph_Driver/src/misc.o
 .debug_aranges
                0x00001cd8       0xc8 project_build//C/mios32/trunk/drivers/STM32F10x/v3.3.0/CMSIS/CM3/CoreSupport/core_cm3.o
 .debug_aranges
                0x00001da0       0x98 project_build//C/mios32/trunk/drivers/STM32F10x/v3.3.0/STM32_USB-FS-Device_Driver/src/usb_core.o
 .debug_aranges
                0x00001e38       0x28 project_build//C/mios32/trunk/drivers/STM32F10x/v3.3.0/STM32_USB-FS-Device_Driver/src/usb_int.o
 .debug_aranges
                0x00001e60       0x28 project_build//C/mios32/trunk/drivers/STM32F10x/v3.3.0/STM32_USB-FS-Device_Driver/src/usb_mem.o
 .debug_aranges
                0x00001e88      0x1f0 project_build//C/mios32/trunk/drivers/STM32F10x/v3.3.0/STM32_USB-FS-Device_Driver/src/usb_regs.o
 .debug_aranges
                0x00002078       0x70 project_build//C/mios32/trunk/modules/app_lcd/clcd/app_lcd.o
 .debug_aranges
                0x000020e8       0x30 project_build//C/mios32/trunk/programming_models/traditional/mini_cpp.o
 .debug_aranges
                0x00002118       0x30 project_build//C/mios32/trunk/programming_models/traditional/freertos_heap.o
 .debug_aranges
                0x00002148       0x20 c:/mios32_toolchain/bin/../lib/gcc/arm-none-eabi/4.5.1/thumb/v7m\libgcc.a(_arm_muldivdf3.o)
 .debug_aranges
                0x00002168       0x20 c:/mios32_toolchain/bin/../lib/gcc/arm-none-eabi/4.5.1/thumb/v7m\libgcc.a(_arm_fixdfsi.o)
 .debug_aranges
                0x00002188       0x20 c:/mios32_toolchain/bin/../lib/gcc/arm-none-eabi/4.5.1/thumb/v7m\libgcc.a(_arm_muldivsf3.o)
 .debug_aranges
                0x000021a8       0x20 c:/mios32_toolchain/bin/../lib/gcc/arm-none-eabi/4.5.1/thumb/v7m\libgcc.a(_arm_fixsfsi.o)

.debug_pubnames
                0x00000000     0x5768
 *(.debug_pubnames)
 .debug_pubnames
                0x00000000      0x142 project_build/app.o
 .debug_pubnames
                0x00000142       0xd8 project_build//C/mios32/trunk/programming_models/traditional/main.o
 .debug_pubnames
                0x0000021a      0x289 project_build//C/mios32/trunk/FreeRTOS/Source/tasks.o
 .debug_pubnames
                0x000004a3       0x71 project_build//C/mios32/trunk/FreeRTOS/Source/list.o
 .debug_pubnames
                0x00000514      0x18c project_build//C/mios32/trunk/FreeRTOS/Source/queue.o
 .debug_pubnames
                0x000006a0      0x10d project_build//C/mios32/trunk/FreeRTOS/Source/portable/GCC/ARM_CM3/port.o
 .debug_pubnames
                0x000007ad       0x76 project_build//C/mios32/trunk/FreeRTOS/Source/portable/MemMang/umm_malloc.o
 .debug_pubnames
                0x00000823       0x53 project_build//C/mios32/trunk/programming_models/traditional/startup_stm32f10x_hd.o
 .debug_pubnames
                0x00000876       0xf7 project_build//C/mios32/trunk/mios32/common/mios32_srio.o
 .debug_pubnames
                0x0000096d       0x8c project_build//C/mios32/trunk/mios32/common/mios32_din.o
 .debug_pubnames
                0x000009f9       0x9d project_build//C/mios32/trunk/mios32/common/mios32_dout.o
 .debug_pubnames
                0x00000a96       0xd8 project_build//C/mios32/trunk/mios32/common/mios32_enc.o
 .debug_pubnames
                0x00000b6e      0x2d9 project_build//C/mios32/trunk/mios32/common/mios32_lcd.o
 .debug_pubnames
                0x00000e47      0x605 project_build//C/mios32/trunk/mios32/common/mios32_midi.o
 .debug_pubnames
                0x0000144c      0x264 project_build//C/mios32/trunk/mios32/common/mios32_osc.o
 .debug_pubnames
                0x000016b0      0x209 project_build//C/mios32/trunk/mios32/common/mios32_com.o
 .debug_pubnames
                0x000018b9      0x151 project_build//C/mios32/trunk/mios32/common/mios32_uart_midi.o
 .debug_pubnames
                0x00001a0a      0x19a project_build//C/mios32/trunk/mios32/common/mios32_iic_midi.o
 .debug_pubnames
                0x00001ba4       0xbf project_build//C/mios32/trunk/mios32/common/mios32_iic_bs.o
 .debug_pubnames
                0x00001c63       0xf2 project_build//C/mios32/trunk/mios32/common/mios32_mf.o
 .debug_pubnames
                0x00001d55      0x10b project_build//C/mios32/trunk/mios32/common/mios32_sdcard.o
 .debug_pubnames
                0x00001e60      0x2f0 project_build//C/mios32/trunk/mios32/common/mios32_enc28j60.o
 .debug_pubnames
                0x00002150       0x27 project_build//C/mios32/trunk/mios32/STM32F10x/mios32_bsl.o
 .debug_pubnames
                0x00002177       0xf6 project_build//C/mios32/trunk/mios32/STM32F10x/mios32_sys.o
 .debug_pubnames
                0x0000226d       0x6f project_build//C/mios32/trunk/mios32/STM32F10x/mios32_irq.o
 .debug_pubnames
                0x000022dc       0xe9 project_build//C/mios32/trunk/mios32/STM32F10x/mios32_spi.o
 .debug_pubnames
                0x000023c5      0x286 project_build//C/mios32/trunk/mios32/STM32F10x/mios32_board.o
 .debug_pubnames
                0x0000264b       0x94 project_build//C/mios32/trunk/mios32/STM32F10x/mios32_timer.o
 .debug_pubnames
                0x000026df       0x65 project_build//C/mios32/trunk/mios32/STM32F10x/mios32_stopwatch.o
 .debug_pubnames
                0x00002744       0x41 project_build//C/mios32/trunk/mios32/STM32F10x/mios32_delay.o
 .debug_pubnames
                0x00002785       0x9b project_build//C/mios32/trunk/mios32/STM32F10x/mios32_ain.o
 .debug_pubnames
                0x00002820       0xcb project_build//C/mios32/trunk/mios32/STM32F10x/mios32_usb.o
 .debug_pubnames
                0x000028eb      0x150 project_build//C/mios32/trunk/mios32/STM32F10x/mios32_usb_midi.o
 .debug_pubnames
                0x00002a3b      0x216 project_build//C/mios32/trunk/mios32/STM32F10x/mios32_uart.o
 .debug_pubnames
                0x00002c51      0x11e project_build//C/mios32/trunk/mios32/STM32F10x/mios32_iic.o
 .debug_pubnames
                0x00002d6f       0x4f project_build//C/mios32/trunk/mios32/common/printf-stdarg.o
 .debug_pubnames
                0x00002dbe      0x19d project_build//C/mios32/trunk/drivers/STM32F10x/v3.3.0/STM32F10x_StdPeriph_Driver/src/stm32f10x_gpio.o
 .debug_pubnames
                0x00002f5b      0x2f2 project_build//C/mios32/trunk/drivers/STM32F10x/v3.3.0/STM32F10x_StdPeriph_Driver/src/stm32f10x_flash.o
 .debug_pubnames
                0x0000324d      0x401 project_build//C/mios32/trunk/drivers/STM32F10x/v3.3.0/STM32F10x_StdPeriph_Driver/src/stm32f10x_adc.o
 .debug_pubnames
                0x0000364e      0x116 project_build//C/mios32/trunk/drivers/STM32F10x/v3.3.0/STM32F10x_StdPeriph_Driver/src/stm32f10x_dac.o
 .debug_pubnames
                0x00003764      0x1f6 project_build//C/mios32/trunk/drivers/STM32F10x/v3.3.0/STM32F10x_StdPeriph_Driver/src/stm32f10x_spi.o
 .debug_pubnames
                0x0000395a      0x294 project_build//C/mios32/trunk/drivers/STM32F10x/v3.3.0/STM32F10x_StdPeriph_Driver/src/stm32f10x_usart.o
 .debug_pubnames
                0x00003bee      0x2b0 project_build//C/mios32/trunk/drivers/STM32F10x/v3.3.0/STM32F10x_StdPeriph_Driver/src/stm32f10x_i2c.o
 .debug_pubnames
                0x00003e9e       0xcf project_build//C/mios32/trunk/drivers/STM32F10x/v3.3.0/STM32F10x_StdPeriph_Driver/src/stm32f10x_dma.o
 .debug_pubnames
                0x00003f6d      0x7b0 project_build//C/mios32/trunk/drivers/STM32F10x/v3.3.0/STM32F10x_StdPeriph_Driver/src/stm32f10x_tim.o
 .debug_pubnames
                0x0000471d      0x2c4 project_build//C/mios32/trunk/drivers/STM32F10x/v3.3.0/STM32F10x_StdPeriph_Driver/src/stm32f10x_rcc.o
 .debug_pubnames
                0x000049e1      0x136 project_build//C/mios32/trunk/drivers/STM32F10x/v3.3.0/STM32F10x_StdPeriph_Driver/src/stm32f10x_rtc.o
 .debug_pubnames
                0x00004b17      0x128 project_build//C/mios32/trunk/drivers/STM32F10x/v3.3.0/STM32F10x_StdPeriph_Driver/src/stm32f10x_bkp.o
 .debug_pubnames
                0x00004c3f       0xcb project_build//C/mios32/trunk/drivers/STM32F10x/v3.3.0/STM32F10x_StdPeriph_Driver/src/stm32f10x_pwr.o
 .debug_pubnames
                0x00004d0a       0xbb project_build//C/mios32/trunk/drivers/STM32F10x/v3.3.0/STM32F10x_StdPeriph_Driver/src/stm32f10x_exti.o
 .debug_pubnames
                0x00004dc5       0x89 project_build//C/mios32/trunk/drivers/STM32F10x/v3.3.0/STM32F10x_StdPeriph_Driver/src/misc.o
 .debug_pubnames
                0x00004e4e      0x159 project_build//C/mios32/trunk/drivers/STM32F10x/v3.3.0/CMSIS/CM3/CoreSupport/core_cm3.o
 .debug_pubnames
                0x00004fa7      0x1a5 project_build//C/mios32/trunk/drivers/STM32F10x/v3.3.0/STM32_USB-FS-Device_Driver/src/usb_core.o
 .debug_pubnames
                0x0000514c       0x46 project_build//C/mios32/trunk/drivers/STM32F10x/v3.3.0/STM32_USB-FS-Device_Driver/src/usb_int.o
 .debug_pubnames
                0x00005192       0x42 project_build//C/mios32/trunk/drivers/STM32F10x/v3.3.0/STM32_USB-FS-Device_Driver/src/usb_mem.o
 .debug_pubnames
                0x000051d4      0x419 project_build//C/mios32/trunk/drivers/STM32F10x/v3.3.0/STM32_USB-FS-Device_Driver/src/usb_regs.o
 .debug_pubnames
                0x000055ed      0x100 project_build//C/mios32/trunk/modules/app_lcd/clcd/app_lcd.o
 .debug_pubnames
                0x000056ed       0x4a project_build//C/mios32/trunk/programming_models/traditional/mini_cpp.o
 .debug_pubnames
                0x00005737       0x31 project_build//C/mios32/trunk/programming_models/traditional/freertos_heap.o

.debug_info     0x00000000    0x1b895
 *(.debug_info .gnu.linkonce.wi.*)
 .debug_info    0x00000000      0x99e project_build/app.o
 .debug_info    0x0000099e      0x30c project_build//C/mios32/trunk/programming_models/traditional/main.o
 .debug_info    0x00000caa      0xe0d project_build//C/mios32/trunk/FreeRTOS/Source/tasks.o
 .debug_info    0x00001ab7      0x29b project_build//C/mios32/trunk/FreeRTOS/Source/list.o
 .debug_info    0x00001d52      0x95d project_build//C/mios32/trunk/FreeRTOS/Source/queue.o
 .debug_info    0x000026af      0x1e7 project_build//C/mios32/trunk/FreeRTOS/Source/portable/GCC/ARM_CM3/port.o
 .debug_info    0x00002896      0x50d project_build//C/mios32/trunk/FreeRTOS/Source/portable/MemMang/umm_malloc.o
 .debug_info    0x00002da3      0x15d project_build//C/mios32/trunk/programming_models/traditional/startup_stm32f10x_hd.o
 .debug_info    0x00002f00      0x343 project_build//C/mios32/trunk/mios32/common/mios32_srio.o
 .debug_info    0x00003243      0x287 project_build//C/mios32/trunk/mios32/common/mios32_din.o
 .debug_info    0x000034ca      0x245 project_build//C/mios32/trunk/mios32/common/mios32_dout.o
 .debug_info    0x0000370f      0x62b project_build//C/mios32/trunk/mios32/common/mios32_enc.o
 .debug_info    0x00003d3a      0x7dc project_build//C/mios32/trunk/mios32/common/mios32_lcd.o
 .debug_info    0x00004516     0x1945 project_build//C/mios32/trunk/mios32/common/mios32_midi.o
 .debug_info    0x00005e5b      0xf31 project_build//C/mios32/trunk/mios32/common/mios32_osc.o
 .debug_info    0x00006d8c      0x6c5 project_build//C/mios32/trunk/mios32/common/mios32_com.o
 .debug_info    0x00007451      0x7f8 project_build//C/mios32/trunk/mios32/common/mios32_uart_midi.o
 .debug_info    0x00007c49      0x59a project_build//C/mios32/trunk/mios32/common/mios32_iic_midi.o
 .debug_info    0x000081e3      0x253 project_build//C/mios32/trunk/mios32/common/mios32_iic_bs.o
 .debug_info    0x00008436      0x37c project_build//C/mios32/trunk/mios32/common/mios32_mf.o
 .debug_info    0x000087b2      0x7dd project_build//C/mios32/trunk/mios32/common/mios32_sdcard.o
 .debug_info    0x00008f8f      0xa46 project_build//C/mios32/trunk/mios32/common/mios32_enc28j60.o
 .debug_info    0x000099d5       0xce project_build//C/mios32/trunk/mios32/STM32F10x/mios32_bsl.o
 .debug_info    0x00009aa3      0x776 project_build//C/mios32/trunk/mios32/STM32F10x/mios32_sys.o
 .debug_info    0x0000a219      0x697 project_build//C/mios32/trunk/mios32/STM32F10x/mios32_irq.o
 .debug_info    0x0000a8b0      0xa81 project_build//C/mios32/trunk/mios32/STM32F10x/mios32_spi.o
 .debug_info    0x0000b331       0x90 project_build//C/mios32/trunk/mios32/STM32F10x/mios32_i2s.o
 .debug_info    0x0000b3c1      0x8c8 project_build//C/mios32/trunk/mios32/STM32F10x/mios32_board.o
 .debug_info    0x0000bc89      0x731 project_build//C/mios32/trunk/mios32/STM32F10x/mios32_timer.o
 .debug_info    0x0000c3ba      0x451 project_build//C/mios32/trunk/mios32/STM32F10x/mios32_stopwatch.o
 .debug_info    0x0000c80b      0x439 project_build//C/mios32/trunk/mios32/STM32F10x/mios32_delay.o
 .debug_info    0x0000cc44      0x9b4 project_build//C/mios32/trunk/mios32/STM32F10x/mios32_ain.o
 .debug_info    0x0000d5f8      0xc1f project_build//C/mios32/trunk/mios32/STM32F10x/mios32_usb.o
 .debug_info    0x0000e217      0x749 project_build//C/mios32/trunk/mios32/STM32F10x/mios32_usb_midi.o
 .debug_info    0x0000e960       0x90 project_build//C/mios32/trunk/mios32/STM32F10x/mios32_usb_com.o
 .debug_info    0x0000e9f0      0xbdb project_build//C/mios32/trunk/mios32/STM32F10x/mios32_uart.o
 .debug_info    0x0000f5cb      0xac7 project_build//C/mios32/trunk/mios32/STM32F10x/mios32_iic.o
 .debug_info    0x00010092      0x4c0 project_build//C/mios32/trunk/mios32/common/printf-stdarg.o
 .debug_info    0x00010552      0x718 project_build//C/mios32/trunk/drivers/STM32F10x/v3.3.0/STM32F10x_StdPeriph_Driver/src/stm32f10x_gpio.o
 .debug_info    0x00010c6a      0x825 project_build//C/mios32/trunk/drivers/STM32F10x/v3.3.0/STM32F10x_StdPeriph_Driver/src/stm32f10x_flash.o
 .debug_info    0x0001148f      0xbf2 project_build//C/mios32/trunk/drivers/STM32F10x/v3.3.0/STM32F10x_StdPeriph_Driver/src/stm32f10x_adc.o
 .debug_info    0x00012081      0x4d4 project_build//C/mios32/trunk/drivers/STM32F10x/v3.3.0/STM32F10x_StdPeriph_Driver/src/stm32f10x_dac.o
 .debug_info    0x00012555      0x956 project_build//C/mios32/trunk/drivers/STM32F10x/v3.3.0/STM32F10x_StdPeriph_Driver/src/stm32f10x_spi.o
 .debug_info    0x00012eab      0xa53 project_build//C/mios32/trunk/drivers/STM32F10x/v3.3.0/STM32F10x_StdPeriph_Driver/src/stm32f10x_usart.o
 .debug_info    0x000138fe      0xb3a project_build//C/mios32/trunk/drivers/STM32F10x/v3.3.0/STM32F10x_StdPeriph_Driver/src/stm32f10x_i2c.o
 .debug_info    0x00014438      0x45e project_build//C/mios32/trunk/drivers/STM32F10x/v3.3.0/STM32F10x_StdPeriph_Driver/src/stm32f10x_dma.o
 .debug_info    0x00014896     0x2216 project_build//C/mios32/trunk/drivers/STM32F10x/v3.3.0/STM32F10x_StdPeriph_Driver/src/stm32f10x_tim.o
 .debug_info    0x00016aac      0x8f1 project_build//C/mios32/trunk/drivers/STM32F10x/v3.3.0/STM32F10x_StdPeriph_Driver/src/stm32f10x_rcc.o
 .debug_info    0x0001739d      0x45f project_build//C/mios32/trunk/drivers/STM32F10x/v3.3.0/STM32F10x_StdPeriph_Driver/src/stm32f10x_rtc.o
 .debug_info    0x000177fc      0x870 project_build//C/mios32/trunk/drivers/STM32F10x/v3.3.0/STM32F10x_StdPeriph_Driver/src/stm32f10x_bkp.o
 .debug_info    0x0001806c      0x2e2 project_build//C/mios32/trunk/drivers/STM32F10x/v3.3.0/STM32F10x_StdPeriph_Driver/src/stm32f10x_pwr.o
 .debug_info    0x0001834e      0x35d project_build//C/mios32/trunk/drivers/STM32F10x/v3.3.0/STM32F10x_StdPeriph_Driver/src/stm32f10x_exti.o
 .debug_info    0x000186ab      0x546 project_build//C/mios32/trunk/drivers/STM32F10x/v3.3.0/STM32F10x_StdPeriph_Driver/src/misc.o
 .debug_info    0x00018bf1      0x54b project_build//C/mios32/trunk/drivers/STM32F10x/v3.3.0/CMSIS/CM3/CoreSupport/core_cm3.o
 .debug_info    0x0001913c      0xce9 project_build//C/mios32/trunk/drivers/STM32F10x/v3.3.0/STM32_USB-FS-Device_Driver/src/usb_core.o
 .debug_info    0x00019e25      0x200 project_build//C/mios32/trunk/drivers/STM32F10x/v3.3.0/STM32_USB-FS-Device_Driver/src/usb_int.o
 .debug_info    0x0001a025      0x1b7 project_build//C/mios32/trunk/drivers/STM32F10x/v3.3.0/STM32_USB-FS-Device_Driver/src/usb_mem.o
 .debug_info    0x0001a1dc      0xd8e project_build//C/mios32/trunk/drivers/STM32F10x/v3.3.0/STM32_USB-FS-Device_Driver/src/usb_regs.o
 .debug_info    0x0001af6a        0x0 project_build//C/mios32/trunk/drivers/STM32F10x/v3.3.0/STM32_USB-FS-Device_Driver/src/otgd_fs_cal.o
 .debug_info    0x0001af6a        0x0 project_build//C/mios32/trunk/drivers/STM32F10x/v3.3.0/STM32_USB-FS-Device_Driver/src/otgd_fs_dev.o
 .debug_info    0x0001af6a        0x0 project_build//C/mios32/trunk/drivers/STM32F10x/v3.3.0/STM32_USB-FS-Device_Driver/src/otgd_fs_int.o
 .debug_info    0x0001af6a        0x0 project_build//C/mios32/trunk/drivers/STM32F10x/v3.3.0/STM32_USB-FS-Device_Driver/src/otgd_fs_pcd.o
 .debug_info    0x0001af6a      0x412 project_build//C/mios32/trunk/modules/app_lcd/clcd/app_lcd.o
 .debug_info    0x0001b37c      0x134 project_build//C/mios32/trunk/programming_models/traditional/mini_cpp.o
 .debug_info    0x0001b4b0      0x109 project_build//C/mios32/trunk/programming_models/traditional/freertos_heap.o
 .debug_info    0x0001b5b9       0xb7 c:/mios32_toolchain/bin/../lib/gcc/arm-none-eabi/4.5.1/thumb/v7m\libgcc.a(_arm_muldivdf3.o)
 .debug_info    0x0001b670       0xb7 c:/mios32_toolchain/bin/../lib/gcc/arm-none-eabi/4.5.1/thumb/v7m\libgcc.a(_arm_fixdfsi.o)
 .debug_info    0x0001b727       0xb7 c:/mios32_toolchain/bin/../lib/gcc/arm-none-eabi/4.5.1/thumb/v7m\libgcc.a(_arm_muldivsf3.o)
 .debug_info    0x0001b7de       0xb7 c:/mios32_toolchain/bin/../lib/gcc/arm-none-eabi/4.5.1/thumb/v7m\libgcc.a(_arm_fixsfsi.o)

.debug_abbrev   0x00000000     0x651e
 *(.debug_abbrev)
 .debug_abbrev  0x00000000      0x28c project_build/app.o
 .debug_abbrev  0x0000028c      0x181 project_build//C/mios32/trunk/programming_models/traditional/main.o
 .debug_abbrev  0x0000040d      0x28d project_build//C/mios32/trunk/FreeRTOS/Source/tasks.o
 .debug_abbrev  0x0000069a       0xc5 project_build//C/mios32/trunk/FreeRTOS/Source/list.o
 .debug_abbrev  0x0000075f      0x237 project_build//C/mios32/trunk/FreeRTOS/Source/queue.o
 .debug_abbrev  0x00000996      0x127 project_build//C/mios32/trunk/FreeRTOS/Source/portable/GCC/ARM_CM3/port.o
 .debug_abbrev  0x00000abd      0x1fb project_build//C/mios32/trunk/FreeRTOS/Source/portable/MemMang/umm_malloc.o
 .debug_abbrev  0x00000cb8       0xd4 project_build//C/mios32/trunk/programming_models/traditional/startup_stm32f10x_hd.o
 .debug_abbrev  0x00000d8c      0x148 project_build//C/mios32/trunk/mios32/common/mios32_srio.o
 .debug_abbrev  0x00000ed4      0x11a project_build//C/mios32/trunk/mios32/common/mios32_din.o
 .debug_abbrev  0x00000fee      0x103 project_build//C/mios32/trunk/mios32/common/mios32_dout.o
 .debug_abbrev  0x000010f1      0x21d project_build//C/mios32/trunk/mios32/common/mios32_enc.o
 .debug_abbrev  0x0000130e      0x2c4 project_build//C/mios32/trunk/mios32/common/mios32_lcd.o
 .debug_abbrev  0x000015d2      0x35f project_build//C/mios32/trunk/mios32/common/mios32_midi.o
 .debug_abbrev  0x00001931      0x31f project_build//C/mios32/trunk/mios32/common/mios32_osc.o
 .debug_abbrev  0x00001c50      0x1dd project_build//C/mios32/trunk/mios32/common/mios32_com.o
 .debug_abbrev  0x00001e2d      0x29e project_build//C/mios32/trunk/mios32/common/mios32_uart_midi.o
 .debug_abbrev  0x000020cb      0x18a project_build//C/mios32/trunk/mios32/common/mios32_iic_midi.o
 .debug_abbrev  0x00002255       0xf7 project_build//C/mios32/trunk/mios32/common/mios32_iic_bs.o
 .debug_abbrev  0x0000234c      0x16f project_build//C/mios32/trunk/mios32/common/mios32_mf.o
 .debug_abbrev  0x000024bb      0x1ab project_build//C/mios32/trunk/mios32/common/mios32_sdcard.o
 .debug_abbrev  0x00002666      0x1cb project_build//C/mios32/trunk/mios32/common/mios32_enc28j60.o
 .debug_abbrev  0x00002831       0x84 project_build//C/mios32/trunk/mios32/STM32F10x/mios32_bsl.o
 .debug_abbrev  0x000028b5      0x23b project_build//C/mios32/trunk/mios32/STM32F10x/mios32_sys.o
 .debug_abbrev  0x00002af0      0x17d project_build//C/mios32/trunk/mios32/STM32F10x/mios32_irq.o
 .debug_abbrev  0x00002c6d      0x1fe project_build//C/mios32/trunk/mios32/STM32F10x/mios32_spi.o
 .debug_abbrev  0x00002e6b       0x40 project_build//C/mios32/trunk/mios32/STM32F10x/mios32_i2s.o
 .debug_abbrev  0x00002eab      0x25d project_build//C/mios32/trunk/mios32/STM32F10x/mios32_board.o
 .debug_abbrev  0x00003108      0x169 project_build//C/mios32/trunk/mios32/STM32F10x/mios32_timer.o
 .debug_abbrev  0x00003271      0x12c project_build//C/mios32/trunk/mios32/STM32F10x/mios32_stopwatch.o
 .debug_abbrev  0x0000339d      0x125 project_build//C/mios32/trunk/mios32/STM32F10x/mios32_delay.o
 .debug_abbrev  0x000034c2      0x20e project_build//C/mios32/trunk/mios32/STM32F10x/mios32_ain.o
 .debug_abbrev  0x000036d0      0x2a3 project_build//C/mios32/trunk/mios32/STM32F10x/mios32_usb.o
 .debug_abbrev  0x00003973      0x216 project_build//C/mios32/trunk/mios32/STM32F10x/mios32_usb_midi.o
 .debug_abbrev  0x00003b89       0x40 project_build//C/mios32/trunk/mios32/STM32F10x/mios32_usb_com.o
 .debug_abbrev  0x00003bc9      0x24f project_build//C/mios32/trunk/mios32/STM32F10x/mios32_uart.o
 .debug_abbrev  0x00003e18      0x29f project_build//C/mios32/trunk/mios32/STM32F10x/mios32_iic.o
 .debug_abbrev  0x000040b7      0x18e project_build//C/mios32/trunk/mios32/common/printf-stdarg.o
 .debug_abbrev  0x00004245      0x1d9 project_build//C/mios32/trunk/drivers/STM32F10x/v3.3.0/STM32F10x_StdPeriph_Driver/src/stm32f10x_gpio.o
 .debug_abbrev  0x0000441e      0x1a6 project_build//C/mios32/trunk/drivers/STM32F10x/v3.3.0/STM32F10x_StdPeriph_Driver/src/stm32f10x_flash.o
 .debug_abbrev  0x000045c4      0x1e6 project_build//C/mios32/trunk/drivers/STM32F10x/v3.3.0/STM32F10x_StdPeriph_Driver/src/stm32f10x_adc.o
 .debug_abbrev  0x000047aa      0x1b5 project_build//C/mios32/trunk/drivers/STM32F10x/v3.3.0/STM32F10x_StdPeriph_Driver/src/stm32f10x_dac.o
 .debug_abbrev  0x0000495f      0x1ae project_build//C/mios32/trunk/drivers/STM32F10x/v3.3.0/STM32F10x_StdPeriph_Driver/src/stm32f10x_spi.o
 .debug_abbrev  0x00004b0d      0x179 project_build//C/mios32/trunk/drivers/STM32F10x/v3.3.0/STM32F10x_StdPeriph_Driver/src/stm32f10x_usart.o
 .debug_abbrev  0x00004c86      0x194 project_build//C/mios32/trunk/drivers/STM32F10x/v3.3.0/STM32F10x_StdPeriph_Driver/src/stm32f10x_i2c.o
 .debug_abbrev  0x00004e1a      0x15d project_build//C/mios32/trunk/drivers/STM32F10x/v3.3.0/STM32F10x_StdPeriph_Driver/src/stm32f10x_dma.o
 .debug_abbrev  0x00004f77      0x25d project_build//C/mios32/trunk/drivers/STM32F10x/v3.3.0/STM32F10x_StdPeriph_Driver/src/stm32f10x_tim.o
 .debug_abbrev  0x000051d4      0x1b9 project_build//C/mios32/trunk/drivers/STM32F10x/v3.3.0/STM32F10x_StdPeriph_Driver/src/stm32f10x_rcc.o
 .debug_abbrev  0x0000538d      0x18c project_build//C/mios32/trunk/drivers/STM32F10x/v3.3.0/STM32F10x_StdPeriph_Driver/src/stm32f10x_rtc.o
 .debug_abbrev  0x00005519      0x17c project_build//C/mios32/trunk/drivers/STM32F10x/v3.3.0/STM32F10x_StdPeriph_Driver/src/stm32f10x_bkp.o
 .debug_abbrev  0x00005695      0x169 project_build//C/mios32/trunk/drivers/STM32F10x/v3.3.0/STM32F10x_StdPeriph_Driver/src/stm32f10x_pwr.o
 .debug_abbrev  0x000057fe      0x170 project_build//C/mios32/trunk/drivers/STM32F10x/v3.3.0/STM32F10x_StdPeriph_Driver/src/stm32f10x_exti.o
 .debug_abbrev  0x0000596e      0x15b project_build//C/mios32/trunk/drivers/STM32F10x/v3.3.0/STM32F10x_StdPeriph_Driver/src/misc.o
 .debug_abbrev  0x00005ac9       0xb4 project_build//C/mios32/trunk/drivers/STM32F10x/v3.3.0/CMSIS/CM3/CoreSupport/core_cm3.o
 .debug_abbrev  0x00005b7d      0x305 project_build//C/mios32/trunk/drivers/STM32F10x/v3.3.0/STM32_USB-FS-Device_Driver/src/usb_core.o
 .debug_abbrev  0x00005e82       0xd8 project_build//C/mios32/trunk/drivers/STM32F10x/v3.3.0/STM32_USB-FS-Device_Driver/src/usb_int.o
 .debug_abbrev  0x00005f5a       0xa9 project_build//C/mios32/trunk/drivers/STM32F10x/v3.3.0/STM32_USB-FS-Device_Driver/src/usb_mem.o
 .debug_abbrev  0x00006003      0x1ee project_build//C/mios32/trunk/drivers/STM32F10x/v3.3.0/STM32_USB-FS-Device_Driver/src/usb_regs.o
 .debug_abbrev  0x000061f1        0x1 project_build//C/mios32/trunk/drivers/STM32F10x/v3.3.0/STM32_USB-FS-Device_Driver/src/otgd_fs_cal.o
 .debug_abbrev  0x000061f2        0x1 project_build//C/mios32/trunk/drivers/STM32F10x/v3.3.0/STM32_USB-FS-Device_Driver/src/otgd_fs_dev.o
 .debug_abbrev  0x000061f3        0x1 project_build//C/mios32/trunk/drivers/STM32F10x/v3.3.0/STM32_USB-FS-Device_Driver/src/otgd_fs_int.o
 .debug_abbrev  0x000061f4        0x1 project_build//C/mios32/trunk/drivers/STM32F10x/v3.3.0/STM32_USB-FS-Device_Driver/src/otgd_fs_pcd.o
 .debug_abbrev  0x000061f5      0x197 project_build//C/mios32/trunk/modules/app_lcd/clcd/app_lcd.o
 .debug_abbrev  0x0000638c       0xbc project_build//C/mios32/trunk/programming_models/traditional/mini_cpp.o
 .debug_abbrev  0x00006448       0x86 project_build//C/mios32/trunk/programming_models/traditional/freertos_heap.o
 .debug_abbrev  0x000064ce       0x14 c:/mios32_toolchain/bin/../lib/gcc/arm-none-eabi/4.5.1/thumb/v7m\libgcc.a(_arm_muldivdf3.o)
 .debug_abbrev  0x000064e2       0x14 c:/mios32_toolchain/bin/../lib/gcc/arm-none-eabi/4.5.1/thumb/v7m\libgcc.a(_arm_fixdfsi.o)
 .debug_abbrev  0x000064f6       0x14 c:/mios32_toolchain/bin/../lib/gcc/arm-none-eabi/4.5.1/thumb/v7m\libgcc.a(_arm_muldivsf3.o)
 .debug_abbrev  0x0000650a       0x14 c:/mios32_toolchain/bin/../lib/gcc/arm-none-eabi/4.5.1/thumb/v7m\libgcc.a(_arm_fixsfsi.o)

.debug_line     0x00000000     0xc92b
 *(.debug_line)
 .debug_line    0x00000000      0x343 project_build/app.o
 .debug_line    0x00000343      0x2f3 project_build//C/mios32/trunk/programming_models/traditional/main.o
 .debug_line    0x00000636      0x5cd project_build//C/mios32/trunk/FreeRTOS/Source/tasks.o
 .debug_line    0x00000c03      0x161 project_build//C/mios32/trunk/FreeRTOS/Source/list.o
 .debug_line    0x00000d64      0x3c2 project_build//C/mios32/trunk/FreeRTOS/Source/queue.o
 .debug_line    0x00001126      0x1bb project_build//C/mios32/trunk/FreeRTOS/Source/portable/GCC/ARM_CM3/port.o
 .debug_line    0x000012e1      0x23f project_build//C/mios32/trunk/FreeRTOS/Source/portable/MemMang/umm_malloc.o
 .debug_line    0x00001520       0xb1 project_build//C/mios32/trunk/programming_models/traditional/startup_stm32f10x_hd.o
 .debug_line    0x000015d1      0x26d project_build//C/mios32/trunk/mios32/common/mios32_srio.o
 .debug_line    0x0000183e      0x216 project_build//C/mios32/trunk/mios32/common/mios32_din.o
 .debug_line    0x00001a54      0x1ec project_build//C/mios32/trunk/mios32/common/mios32_dout.o
 .debug_line    0x00001c40      0x339 project_build//C/mios32/trunk/mios32/common/mios32_enc.o
 .debug_line    0x00001f79      0x39b project_build//C/mios32/trunk/mios32/common/mios32_lcd.o
 .debug_line    0x00002314      0x85d project_build//C/mios32/trunk/mios32/common/mios32_midi.o
 .debug_line    0x00002b71      0x543 project_build//C/mios32/trunk/mios32/common/mios32_osc.o
 .debug_line    0x000030b4      0x32b project_build//C/mios32/trunk/mios32/common/mios32_com.o
 .debug_line    0x000033df      0x370 project_build//C/mios32/trunk/mios32/common/mios32_uart_midi.o
 .debug_line    0x0000374f      0x237 project_build//C/mios32/trunk/mios32/common/mios32_iic_midi.o
 .debug_line    0x00003986      0x1af project_build//C/mios32/trunk/mios32/common/mios32_iic_bs.o
 .debug_line    0x00003b35      0x217 project_build//C/mios32/trunk/mios32/common/mios32_mf.o
 .debug_line    0x00003d4c      0x381 project_build//C/mios32/trunk/mios32/common/mios32_sdcard.o
 .debug_line    0x000040cd      0x56c project_build//C/mios32/trunk/mios32/common/mios32_enc28j60.o
 .debug_line    0x00004639      0x152 project_build//C/mios32/trunk/mios32/STM32F10x/mios32_bsl.o
 .debug_line    0x0000478b      0x2f5 project_build//C/mios32/trunk/mios32/STM32F10x/mios32_sys.o
 .debug_line    0x00004a80      0x1c8 project_build//C/mios32/trunk/mios32/STM32F10x/mios32_irq.o
 .debug_line    0x00004c48      0x58e project_build//C/mios32/trunk/mios32/STM32F10x/mios32_spi.o
 .debug_line    0x000051d6       0x6a project_build//C/mios32/trunk/mios32/STM32F10x/mios32_i2s.o
 .debug_line    0x00005240      0x504 project_build//C/mios32/trunk/mios32/STM32F10x/mios32_board.o
 .debug_line    0x00005744      0x23e project_build//C/mios32/trunk/mios32/STM32F10x/mios32_timer.o
 .debug_line    0x00005982      0x1ee project_build//C/mios32/trunk/mios32/STM32F10x/mios32_stopwatch.o
 .debug_line    0x00005b70      0x1d2 project_build//C/mios32/trunk/mios32/STM32F10x/mios32_delay.o
 .debug_line    0x00005d42      0x3f8 project_build//C/mios32/trunk/mios32/STM32F10x/mios32_ain.o
 .debug_line    0x0000613a      0x40a project_build//C/mios32/trunk/mios32/STM32F10x/mios32_usb.o
 .debug_line    0x00006544      0x2a9 project_build//C/mios32/trunk/mios32/STM32F10x/mios32_usb_midi.o
 .debug_line    0x000067ed       0x6a project_build//C/mios32/trunk/mios32/STM32F10x/mios32_usb_com.o
 .debug_line    0x00006857      0x443 project_build//C/mios32/trunk/mios32/STM32F10x/mios32_uart.o
 .debug_line    0x00006c9a      0x38f project_build//C/mios32/trunk/mios32/STM32F10x/mios32_iic.o
 .debug_line    0x00007029      0x2e4 project_build//C/mios32/trunk/mios32/common/printf-stdarg.o
 .debug_line    0x0000730d      0x3b2 project_build//C/mios32/trunk/drivers/STM32F10x/v3.3.0/STM32F10x_StdPeriph_Driver/src/stm32f10x_gpio.o
 .debug_line    0x000076bf      0x4d7 project_build//C/mios32/trunk/drivers/STM32F10x/v3.3.0/STM32F10x_StdPeriph_Driver/src/stm32f10x_flash.o
 .debug_line    0x00007b96      0x507 project_build//C/mios32/trunk/drivers/STM32F10x/v3.3.0/STM32F10x_StdPeriph_Driver/src/stm32f10x_adc.o
 .debug_line    0x0000809d      0x2d2 project_build//C/mios32/trunk/drivers/STM32F10x/v3.3.0/STM32F10x_StdPeriph_Driver/src/stm32f10x_dac.o
 .debug_line    0x0000836f      0x420 project_build//C/mios32/trunk/drivers/STM32F10x/v3.3.0/STM32F10x_StdPeriph_Driver/src/stm32f10x_spi.o
 .debug_line    0x0000878f      0x495 project_build//C/mios32/trunk/drivers/STM32F10x/v3.3.0/STM32F10x_StdPeriph_Driver/src/stm32f10x_usart.o
 .debug_line    0x00008c24      0x4d5 project_build//C/mios32/trunk/drivers/STM32F10x/v3.3.0/STM32F10x_StdPeriph_Driver/src/stm32f10x_i2c.o
 .debug_line    0x000090f9      0x2ce project_build//C/mios32/trunk/drivers/STM32F10x/v3.3.0/STM32F10x_StdPeriph_Driver/src/stm32f10x_dma.o
 .debug_line    0x000093c7      0xb1c project_build//C/mios32/trunk/drivers/STM32F10x/v3.3.0/STM32F10x_StdPeriph_Driver/src/stm32f10x_tim.o
 .debug_line    0x00009ee3      0x484 project_build//C/mios32/trunk/drivers/STM32F10x/v3.3.0/STM32F10x_StdPeriph_Driver/src/stm32f10x_rcc.o
 .debug_line    0x0000a367      0x2a1 project_build//C/mios32/trunk/drivers/STM32F10x/v3.3.0/STM32F10x_StdPeriph_Driver/src/stm32f10x_rtc.o
 .debug_line    0x0000a608      0x251 project_build//C/mios32/trunk/drivers/STM32F10x/v3.3.0/STM32F10x_StdPeriph_Driver/src/stm32f10x_bkp.o
 .debug_line    0x0000a859      0x237 project_build//C/mios32/trunk/drivers/STM32F10x/v3.3.0/STM32F10x_StdPeriph_Driver/src/stm32f10x_pwr.o
 .debug_line    0x0000aa90      0x286 project_build//C/mios32/trunk/drivers/STM32F10x/v3.3.0/STM32F10x_StdPeriph_Driver/src/stm32f10x_exti.o
 .debug_line    0x0000ad16      0x22c project_build//C/mios32/trunk/drivers/STM32F10x/v3.3.0/STM32F10x_StdPeriph_Driver/src/misc.o
 .debug_line    0x0000af42      0x246 project_build//C/mios32/trunk/drivers/STM32F10x/v3.3.0/CMSIS/CM3/CoreSupport/core_cm3.o
 .debug_line    0x0000b188      0x4a0 project_build//C/mios32/trunk/drivers/STM32F10x/v3.3.0/STM32_USB-FS-Device_Driver/src/usb_core.o
 .debug_line    0x0000b628      0x239 project_build//C/mios32/trunk/drivers/STM32F10x/v3.3.0/STM32_USB-FS-Device_Driver/src/usb_int.o
 .debug_line    0x0000b861      0x163 project_build//C/mios32/trunk/drivers/STM32F10x/v3.3.0/STM32_USB-FS-Device_Driver/src/usb_mem.o
 .debug_line    0x0000b9c4      0x6b5 project_build//C/mios32/trunk/drivers/STM32F10x/v3.3.0/STM32_USB-FS-Device_Driver/src/usb_regs.o
 .debug_line    0x0000c079        0x0 project_build//C/mios32/trunk/drivers/STM32F10x/v3.3.0/STM32_USB-FS-Device_Driver/src/otgd_fs_cal.o
 .debug_line    0x0000c079        0x0 project_build//C/mios32/trunk/drivers/STM32F10x/v3.3.0/STM32_USB-FS-Device_Driver/src/otgd_fs_dev.o
 .debug_line    0x0000c079        0x0 project_build//C/mios32/trunk/drivers/STM32F10x/v3.3.0/STM32_USB-FS-Device_Driver/src/otgd_fs_int.o
 .debug_line    0x0000c079        0x0 project_build//C/mios32/trunk/drivers/STM32F10x/v3.3.0/STM32_USB-FS-Device_Driver/src/otgd_fs_pcd.o
 .debug_line    0x0000c079      0x279 project_build//C/mios32/trunk/modules/app_lcd/clcd/app_lcd.o
 .debug_line    0x0000c2f2       0xd9 project_build//C/mios32/trunk/programming_models/traditional/mini_cpp.o
 .debug_line    0x0000c3cb       0xdf project_build//C/mios32/trunk/programming_models/traditional/freertos_heap.o
 .debug_line    0x0000c4aa      0x229 c:/mios32_toolchain/bin/../lib/gcc/arm-none-eabi/4.5.1/thumb/v7m\libgcc.a(_arm_muldivdf3.o)
 .debug_line    0x0000c6d3       0x87 c:/mios32_toolchain/bin/../lib/gcc/arm-none-eabi/4.5.1/thumb/v7m\libgcc.a(_arm_fixdfsi.o)
 .debug_line    0x0000c75a      0x14a c:/mios32_toolchain/bin/../lib/gcc/arm-none-eabi/4.5.1/thumb/v7m\libgcc.a(_arm_muldivsf3.o)
 .debug_line    0x0000c8a4       0x87 c:/mios32_toolchain/bin/../lib/gcc/arm-none-eabi/4.5.1/thumb/v7m\libgcc.a(_arm_fixsfsi.o)

.debug_frame    0x00000000     0x4bac
 *(.debug_frame)
 .debug_frame   0x00000000       0xf8 project_build/app.o
 .debug_frame   0x000000f8      0x11c project_build//C/mios32/trunk/programming_models/traditional/main.o
 .debug_frame   0x00000214      0x2dc project_build//C/mios32/trunk/FreeRTOS/Source/tasks.o
 .debug_frame   0x000004f0       0x60 project_build//C/mios32/trunk/FreeRTOS/Source/list.o
 .debug_frame   0x00000550      0x1b8 project_build//C/mios32/trunk/FreeRTOS/Source/queue.o
 .debug_frame   0x00000708       0xc0 project_build//C/mios32/trunk/FreeRTOS/Source/portable/GCC/ARM_CM3/port.o
 .debug_frame   0x000007c8       0xf0 project_build//C/mios32/trunk/FreeRTOS/Source/portable/MemMang/umm_malloc.o
 .debug_frame   0x000008b8       0x4c project_build//C/mios32/trunk/programming_models/traditional/startup_stm32f10x_hd.o
 .debug_frame   0x00000904       0x94 project_build//C/mios32/trunk/mios32/common/mios32_srio.o
 .debug_frame   0x00000998       0x80 project_build//C/mios32/trunk/mios32/common/mios32_din.o
 .debug_frame   0x00000a18       0x6c project_build//C/mios32/trunk/mios32/common/mios32_dout.o
 .debug_frame   0x00000a84       0xc4 project_build//C/mios32/trunk/mios32/common/mios32_enc.o
 .debug_frame   0x00000b48      0x224 project_build//C/mios32/trunk/mios32/common/mios32_lcd.o
 .debug_frame   0x00000d6c      0x4f4 project_build//C/mios32/trunk/mios32/common/mios32_midi.o
 .debug_frame   0x00001260      0x298 project_build//C/mios32/trunk/mios32/common/mios32_osc.o
 .debug_frame   0x000014f8      0x180 project_build//C/mios32/trunk/mios32/common/mios32_com.o
 .debug_frame   0x00001678       0xe8 project_build//C/mios32/trunk/mios32/common/mios32_uart_midi.o
 .debug_frame   0x00001760       0xc0 project_build//C/mios32/trunk/mios32/common/mios32_iic_midi.o
 .debug_frame   0x00001820       0x70 project_build//C/mios32/trunk/mios32/common/mios32_iic_bs.o
 .debug_frame   0x00001890       0xa0 project_build//C/mios32/trunk/mios32/common/mios32_mf.o
 .debug_frame   0x00001930      0x110 project_build//C/mios32/trunk/mios32/common/mios32_sdcard.o
 .debug_frame   0x00001a40      0x298 project_build//C/mios32/trunk/mios32/common/mios32_enc28j60.o
 .debug_frame   0x00001cd8       0xd0 project_build//C/mios32/trunk/mios32/STM32F10x/mios32_sys.o
 .debug_frame   0x00001da8       0x50 project_build//C/mios32/trunk/mios32/STM32F10x/mios32_irq.o
 .debug_frame   0x00001df8       0xfc project_build//C/mios32/trunk/mios32/STM32F10x/mios32_spi.o
 .debug_frame   0x00001ef4      0x1e0 project_build//C/mios32/trunk/mios32/STM32F10x/mios32_board.o
 .debug_frame   0x000020d4       0xb4 project_build//C/mios32/trunk/mios32/STM32F10x/mios32_timer.o
 .debug_frame   0x00002188       0x60 project_build//C/mios32/trunk/mios32/STM32F10x/mios32_stopwatch.o
 .debug_frame   0x000021e8       0x40 project_build//C/mios32/trunk/mios32/STM32F10x/mios32_delay.o
 .debug_frame   0x00002228       0x98 project_build//C/mios32/trunk/mios32/STM32F10x/mios32_ain.o
 .debug_frame   0x000022c0      0x14c project_build//C/mios32/trunk/mios32/STM32F10x/mios32_usb.o
 .debug_frame   0x0000240c      0x114 project_build//C/mios32/trunk/mios32/STM32F10x/mios32_usb_midi.o
 .debug_frame   0x00002520      0x1d0 project_build//C/mios32/trunk/mios32/STM32F10x/mios32_uart.o
 .debug_frame   0x000026f0      0x120 project_build//C/mios32/trunk/mios32/STM32F10x/mios32_iic.o
 .debug_frame   0x00002810      0x134 project_build//C/mios32/trunk/mios32/common/printf-stdarg.o
 .debug_frame   0x00002944      0x164 project_build//C/mios32/trunk/drivers/STM32F10x/v3.3.0/STM32F10x_StdPeriph_Driver/src/stm32f10x_gpio.o
 .debug_frame   0x00002aa8      0x254 project_build//C/mios32/trunk/drivers/STM32F10x/v3.3.0/STM32F10x_StdPeriph_Driver/src/stm32f10x_flash.o
 .debug_frame   0x00002cfc      0x278 project_build//C/mios32/trunk/drivers/STM32F10x/v3.3.0/STM32F10x_StdPeriph_Driver/src/stm32f10x_adc.o
 .debug_frame   0x00002f74       0xec project_build//C/mios32/trunk/drivers/STM32F10x/v3.3.0/STM32F10x_StdPeriph_Driver/src/stm32f10x_dac.o
 .debug_frame   0x00003060      0x19c project_build//C/mios32/trunk/drivers/STM32F10x/v3.3.0/STM32F10x_StdPeriph_Driver/src/stm32f10x_spi.o
 .debug_frame   0x000031fc      0x1f8 project_build//C/mios32/trunk/drivers/STM32F10x/v3.3.0/STM32F10x_StdPeriph_Driver/src/stm32f10x_usart.o
 .debug_frame   0x000033f4      0x230 project_build//C/mios32/trunk/drivers/STM32F10x/v3.3.0/STM32F10x_StdPeriph_Driver/src/stm32f10x_i2c.o
 .debug_frame   0x00003624       0xb0 project_build//C/mios32/trunk/drivers/STM32F10x/v3.3.0/STM32F10x_StdPeriph_Driver/src/stm32f10x_dma.o
 .debug_frame   0x000036d4      0x614 project_build//C/mios32/trunk/drivers/STM32F10x/v3.3.0/STM32F10x_StdPeriph_Driver/src/stm32f10x_tim.o
 .debug_frame   0x00003ce8      0x21c project_build//C/mios32/trunk/drivers/STM32F10x/v3.3.0/STM32F10x_StdPeriph_Driver/src/stm32f10x_rcc.o
 .debug_frame   0x00003f04      0x108 project_build//C/mios32/trunk/drivers/STM32F10x/v3.3.0/STM32F10x_StdPeriph_Driver/src/stm32f10x_rtc.o
 .debug_frame   0x0000400c       0xe0 project_build//C/mios32/trunk/drivers/STM32F10x/v3.3.0/STM32F10x_StdPeriph_Driver/src/stm32f10x_bkp.o
 .debug_frame   0x000040ec       0xa8 project_build//C/mios32/trunk/drivers/STM32F10x/v3.3.0/STM32F10x_StdPeriph_Driver/src/stm32f10x_pwr.o
 .debug_frame   0x00004194       0x98 project_build//C/mios32/trunk/drivers/STM32F10x/v3.3.0/STM32F10x_StdPeriph_Driver/src/stm32f10x_exti.o
 .debug_frame   0x0000422c       0x68 project_build//C/mios32/trunk/drivers/STM32F10x/v3.3.0/STM32F10x_StdPeriph_Driver/src/misc.o
 .debug_frame   0x00004294      0x170 project_build//C/mios32/trunk/drivers/STM32F10x/v3.3.0/CMSIS/CM3/CoreSupport/core_cm3.o
 .debug_frame   0x00004404      0x1a8 project_build//C/mios32/trunk/drivers/STM32F10x/v3.3.0/STM32_USB-FS-Device_Driver/src/usb_core.o
 .debug_frame   0x000045ac       0x54 project_build//C/mios32/trunk/drivers/STM32F10x/v3.3.0/STM32_USB-FS-Device_Driver/src/usb_int.o
 .debug_frame   0x00004600       0x30 project_build//C/mios32/trunk/drivers/STM32F10x/v3.3.0/STM32_USB-FS-Device_Driver/src/usb_mem.o
 .debug_frame   0x00004630      0x3c0 project_build//C/mios32/trunk/drivers/STM32F10x/v3.3.0/STM32_USB-FS-Device_Driver/src/usb_regs.o
 .debug_frame   0x000049f0      0x114 project_build//C/mios32/trunk/modules/app_lcd/clcd/app_lcd.o
 .debug_frame   0x00004b04       0x50 project_build//C/mios32/trunk/programming_models/traditional/mini_cpp.o
 .debug_frame   0x00004b54       0x58 project_build//C/mios32/trunk/programming_models/traditional/freertos_heap.o

.debug_str      0x00000000     0x9e6b
 *(.debug_str)
 .debug_str     0x00000000      0x562 project_build/app.o
                                0x65a (size before relaxing)
 .debug_str     0x00000562      0x16f project_build//C/mios32/trunk/programming_models/traditional/main.o
                                0x252 (size before relaxing)
 .debug_str     0x000006d1      0x724 project_build//C/mios32/trunk/FreeRTOS/Source/tasks.o
                                0x81e (size before relaxing)
 .debug_str     0x00000df5       0xba project_build//C/mios32/trunk/FreeRTOS/Source/list.o
                                0x1ed (size before relaxing)
 .debug_str     0x00000eaf      0x399 project_build//C/mios32/trunk/FreeRTOS/Source/queue.o
                                0x537 (size before relaxing)
 .debug_str     0x00001248      0x143 project_build//C/mios32/trunk/FreeRTOS/Source/portable/GCC/ARM_CM3/port.o
                                0x1e1 (size before relaxing)
 .debug_str     0x0000138b      0x1d1 project_build//C/mios32/trunk/FreeRTOS/Source/portable/MemMang/umm_malloc.o
                                0x285 (size before relaxing)
 .debug_str     0x0000155c       0xb0 project_build//C/mios32/trunk/programming_models/traditional/startup_stm32f10x_hd.o
                                 0xdb (size before relaxing)
 .debug_str     0x0000160c      0x303 project_build//C/mios32/trunk/mios32/common/mios32_srio.o
                                0x3d1 (size before relaxing)
 .debug_str     0x0000190f       0x98 project_build//C/mios32/trunk/mios32/common/mios32_din.o
                                0x1a0 (size before relaxing)
 .debug_str     0x000019a7       0x9f project_build//C/mios32/trunk/mios32/common/mios32_dout.o
                                0x176 (size before relaxing)
 .debug_str     0x00001a46      0x226 project_build//C/mios32/trunk/mios32/common/mios32_enc.o
                                0x33e (size before relaxing)
 .debug_str     0x00001c6c      0x340 project_build//C/mios32/trunk/mios32/common/mios32_lcd.o
                                0x468 (size before relaxing)
 .debug_str     0x00001fac      0x95e project_build//C/mios32/trunk/mios32/common/mios32_midi.o
                                0xcfb (size before relaxing)
 .debug_str     0x0000290a      0x3d3 project_build//C/mios32/trunk/mios32/common/mios32_osc.o
                                0x5e1 (size before relaxing)
 .debug_str     0x00002cdd      0x2eb project_build//C/mios32/trunk/mios32/common/mios32_com.o
                                0x4e2 (size before relaxing)
 .debug_str     0x00002fc8      0x1f7 project_build//C/mios32/trunk/mios32/common/mios32_uart_midi.o
                                0x4a4 (size before relaxing)
 .debug_str     0x000031bf      0x1a9 project_build//C/mios32/trunk/mios32/common/mios32_iic_midi.o
                                0x3bd (size before relaxing)
 .debug_str     0x00003368       0xcb project_build//C/mios32/trunk/mios32/common/mios32_iic_bs.o
                                0x1a3 (size before relaxing)
 .debug_str     0x00003433      0x18a project_build//C/mios32/trunk/mios32/common/mios32_mf.o
                                0x260 (size before relaxing)
 .debug_str     0x000035bd      0x394 project_build//C/mios32/trunk/mios32/common/mios32_sdcard.o
                                0x623 (size before relaxing)
 .debug_str     0x00003951      0x479 project_build//C/mios32/trunk/mios32/common/mios32_enc28j60.o
                                0x756 (size before relaxing)
 .debug_str     0x00003dca       0x3f project_build//C/mios32/trunk/mios32/STM32F10x/mios32_bsl.o
                                 0xe9 (size before relaxing)
 .debug_str     0x00003e09      0x360 project_build//C/mios32/trunk/mios32/STM32F10x/mios32_sys.o
                                0x474 (size before relaxing)
 .debug_str     0x00004169      0x4a9 project_build//C/mios32/trunk/mios32/STM32F10x/mios32_irq.o
                                0x5f2 (size before relaxing)
 .debug_str     0x00004612      0x3a3 project_build//C/mios32/trunk/mios32/STM32F10x/mios32_spi.o
                                0xb6b (size before relaxing)
 .debug_str     0x000049b5       0x2e project_build//C/mios32/trunk/mios32/STM32F10x/mios32_i2s.o
                                 0xd0 (size before relaxing)
 .debug_str     0x000049e3      0x312 project_build//C/mios32/trunk/mios32/STM32F10x/mios32_board.o
                                0x61b (size before relaxing)
 .debug_str     0x00004cf5      0x214 project_build//C/mios32/trunk/mios32/STM32F10x/mios32_timer.o
                                0x706 (size before relaxing)
 .debug_str     0x00004f09       0x86 project_build//C/mios32/trunk/mios32/STM32F10x/mios32_stopwatch.o
                                0x2fb (size before relaxing)
 .debug_str     0x00004f8f       0x57 project_build//C/mios32/trunk/mios32/STM32F10x/mios32_delay.o
                                0x2cb (size before relaxing)
 .debug_str     0x00004fe6      0x27d project_build//C/mios32/trunk/mios32/STM32F10x/mios32_ain.o
                                0x966 (size before relaxing)
 .debug_str     0x00005263      0x5e2 project_build//C/mios32/trunk/mios32/STM32F10x/mios32_usb.o
                                0xc8a (size before relaxing)
 .debug_str     0x00005845      0x24c project_build//C/mios32/trunk/mios32/STM32F10x/mios32_usb_midi.o
                                0x4ea (size before relaxing)
 .debug_str     0x00005a91       0x32 project_build//C/mios32/trunk/mios32/STM32F10x/mios32_usb_com.o
                                 0xd4 (size before relaxing)
 .debug_str     0x00005ac3      0x298 project_build//C/mios32/trunk/mios32/STM32F10x/mios32_uart.o
                                0x9c2 (size before relaxing)
 .debug_str     0x00005d5b      0x353 project_build//C/mios32/trunk/mios32/STM32F10x/mios32_iic.o
                                0x9cd (size before relaxing)
 .debug_str     0x000060ae       0x87 project_build//C/mios32/trunk/mios32/common/printf-stdarg.o
                                0x182 (size before relaxing)
 .debug_str     0x00006135      0x290 project_build//C/mios32/trunk/drivers/STM32F10x/v3.3.0/STM32F10x_StdPeriph_Driver/src/stm32f10x_gpio.o
                                0x48d (size before relaxing)
 .debug_str     0x000063c5      0x442 project_build//C/mios32/trunk/drivers/STM32F10x/v3.3.0/STM32F10x_StdPeriph_Driver/src/stm32f10x_flash.o
                                0x55c (size before relaxing)
 .debug_str     0x00006807      0x483 project_build//C/mios32/trunk/drivers/STM32F10x/v3.3.0/STM32F10x_StdPeriph_Driver/src/stm32f10x_adc.o
                                0x66f (size before relaxing)
 .debug_str     0x00006c8a      0x1c3 project_build//C/mios32/trunk/drivers/STM32F10x/v3.3.0/STM32F10x_StdPeriph_Driver/src/stm32f10x_dac.o
                                0x31b (size before relaxing)
 .debug_str     0x00006e4d      0x334 project_build//C/mios32/trunk/drivers/STM32F10x/v3.3.0/STM32F10x_StdPeriph_Driver/src/stm32f10x_spi.o
                                0x571 (size before relaxing)
 .debug_str     0x00007181      0x3b9 project_build//C/mios32/trunk/drivers/STM32F10x/v3.3.0/STM32F10x_StdPeriph_Driver/src/stm32f10x_usart.o
                                0x604 (size before relaxing)
 .debug_str     0x0000753a      0x32e project_build//C/mios32/trunk/drivers/STM32F10x/v3.3.0/STM32F10x_StdPeriph_Driver/src/stm32f10x_i2c.o
                                0x5b2 (size before relaxing)
 .debug_str     0x00007868      0x12b project_build//C/mios32/trunk/drivers/STM32F10x/v3.3.0/STM32F10x_StdPeriph_Driver/src/stm32f10x_dma.o
                                0x30a (size before relaxing)
 .debug_str     0x00007993      0xa76 project_build//C/mios32/trunk/drivers/STM32F10x/v3.3.0/STM32F10x_StdPeriph_Driver/src/stm32f10x_tim.o
                                0xd51 (size before relaxing)
 .debug_str     0x00008409      0x3dc project_build//C/mios32/trunk/drivers/STM32F10x/v3.3.0/STM32F10x_StdPeriph_Driver/src/stm32f10x_rcc.o
                                0x58e (size before relaxing)
 .debug_str     0x000087e5      0x17b project_build//C/mios32/trunk/drivers/STM32F10x/v3.3.0/STM32F10x_StdPeriph_Driver/src/stm32f10x_rtc.o
                                0x30e (size before relaxing)
 .debug_str     0x00008960      0x341 project_build//C/mios32/trunk/drivers/STM32F10x/v3.3.0/STM32F10x_StdPeriph_Driver/src/stm32f10x_bkp.o
                                0x529 (size before relaxing)
 .debug_str     0x00008ca1      0x137 project_build//C/mios32/trunk/drivers/STM32F10x/v3.3.0/STM32F10x_StdPeriph_Driver/src/stm32f10x_pwr.o
                                0x22f (size before relaxing)
 .debug_str     0x00008dd8      0x1dc project_build//C/mios32/trunk/drivers/STM32F10x/v3.3.0/STM32F10x_StdPeriph_Driver/src/stm32f10x_exti.o
                                0x2d2 (size before relaxing)
 .debug_str     0x00008fb4      0x196 project_build//C/mios32/trunk/drivers/STM32F10x/v3.3.0/STM32F10x_StdPeriph_Driver/src/misc.o
                                0x337 (size before relaxing)
 .debug_str     0x0000914a      0x171 project_build//C/mios32/trunk/drivers/STM32F10x/v3.3.0/CMSIS/CM3/CoreSupport/core_cm3.o
                                0x23d (size before relaxing)
 .debug_str     0x000092bb      0x4a1 project_build//C/mios32/trunk/drivers/STM32F10x/v3.3.0/STM32_USB-FS-Device_Driver/src/usb_core.o
                                0x9c2 (size before relaxing)
 .debug_str     0x0000975c       0x6f project_build//C/mios32/trunk/drivers/STM32F10x/v3.3.0/STM32_USB-FS-Device_Driver/src/usb_int.o
                                0x165 (size before relaxing)
 .debug_str     0x000097cb       0xaa project_build//C/mios32/trunk/drivers/STM32F10x/v3.3.0/STM32_USB-FS-Device_Driver/src/usb_mem.o
                                0x166 (size before relaxing)
 .debug_str     0x00009875      0x40f project_build//C/mios32/trunk/drivers/STM32F10x/v3.3.0/STM32_USB-FS-Device_Driver/src/usb_regs.o
                                0x4ee (size before relaxing)
 .debug_str     0x00009c84      0x103 project_build//C/mios32/trunk/modules/app_lcd/clcd/app_lcd.o
                                0x27c (size before relaxing)
 .debug_str     0x00009d87       0x95 project_build//C/mios32/trunk/programming_models/traditional/mini_cpp.o
                                0x135 (size before relaxing)
 .debug_str     0x00009e1c       0x4f project_build//C/mios32/trunk/programming_models/traditional/freertos_heap.o
                                 0xfd (size before relaxing)

.debug_loc      0x00000000     0xfaaa
 *(.debug_loc)
 .debug_loc     0x00000000      0x46e project_build/app.o
 .debug_loc     0x0000046e      0x32b project_build//C/mios32/trunk/programming_models/traditional/main.o
 .debug_loc     0x00000799      0x9b3 project_build//C/mios32/trunk/FreeRTOS/Source/tasks.o
 .debug_loc     0x0000114c       0x35 project_build//C/mios32/trunk/FreeRTOS/Source/list.o
 .debug_loc     0x00001181      0x7a1 project_build//C/mios32/trunk/FreeRTOS/Source/queue.o
 .debug_loc     0x00001922       0x88 project_build//C/mios32/trunk/FreeRTOS/Source/portable/GCC/ARM_CM3/port.o
 .debug_loc     0x000019aa      0x4da project_build//C/mios32/trunk/FreeRTOS/Source/portable/MemMang/umm_malloc.o
 .debug_loc     0x00001e84       0x54 project_build//C/mios32/trunk/programming_models/traditional/startup_stm32f10x_hd.o
 .debug_loc     0x00001ed8      0x122 project_build//C/mios32/trunk/mios32/common/mios32_srio.o
 .debug_loc     0x00001ffa      0x15e project_build//C/mios32/trunk/mios32/common/mios32_din.o
 .debug_loc     0x00002158       0xda project_build//C/mios32/trunk/mios32/common/mios32_dout.o
 .debug_loc     0x00002232      0x2f3 project_build//C/mios32/trunk/mios32/common/mios32_enc.o
 .debug_loc     0x00002525      0x514 project_build//C/mios32/trunk/mios32/common/mios32_lcd.o
 .debug_loc     0x00002a39     0x1b93 project_build//C/mios32/trunk/mios32/common/mios32_midi.o
 .debug_loc     0x000045cc      0xcb7 project_build//C/mios32/trunk/mios32/common/mios32_osc.o
 .debug_loc     0x00005283      0x390 project_build//C/mios32/trunk/mios32/common/mios32_com.o
 .debug_loc     0x00005613      0x392 project_build//C/mios32/trunk/mios32/common/mios32_uart_midi.o
 .debug_loc     0x000059a5       0xab project_build//C/mios32/trunk/mios32/common/mios32_iic_midi.o
 .debug_loc     0x00005a50       0x5f project_build//C/mios32/trunk/mios32/common/mios32_iic_bs.o
 .debug_loc     0x00005aaf       0xab project_build//C/mios32/trunk/mios32/common/mios32_mf.o
 .debug_loc     0x00005b5a      0x655 project_build//C/mios32/trunk/mios32/common/mios32_sdcard.o
 .debug_loc     0x000061af      0xf95 project_build//C/mios32/trunk/mios32/common/mios32_enc28j60.o
 .debug_loc     0x00007144      0x1d2 project_build//C/mios32/trunk/mios32/STM32F10x/mios32_sys.o
 .debug_loc     0x00007316       0xbe project_build//C/mios32/trunk/mios32/STM32F10x/mios32_irq.o
 .debug_loc     0x000073d4      0x677 project_build//C/mios32/trunk/mios32/STM32F10x/mios32_spi.o
 .debug_loc     0x00007a4b      0x3e1 project_build//C/mios32/trunk/mios32/STM32F10x/mios32_board.o
 .debug_loc     0x00007e2c      0x182 project_build//C/mios32/trunk/mios32/STM32F10x/mios32_timer.o
 .debug_loc     0x00007fae       0xa8 project_build//C/mios32/trunk/mios32/STM32F10x/mios32_stopwatch.o
 .debug_loc     0x00008056       0x51 project_build//C/mios32/trunk/mios32/STM32F10x/mios32_delay.o
 .debug_loc     0x000080a7      0x2d8 project_build//C/mios32/trunk/mios32/STM32F10x/mios32_ain.o
 .debug_loc     0x0000837f      0x21e project_build//C/mios32/trunk/mios32/STM32F10x/mios32_usb.o
 .debug_loc     0x0000859d      0x271 project_build//C/mios32/trunk/mios32/STM32F10x/mios32_usb_midi.o
 .debug_loc     0x0000880e      0x548 project_build//C/mios32/trunk/mios32/STM32F10x/mios32_uart.o
 .debug_loc     0x00008d56      0x4da project_build//C/mios32/trunk/mios32/STM32F10x/mios32_iic.o
 .debug_loc     0x00009230      0x7cd project_build//C/mios32/trunk/mios32/common/printf-stdarg.o
 .debug_loc     0x000099fd      0x471 project_build//C/mios32/trunk/drivers/STM32F10x/v3.3.0/STM32F10x_StdPeriph_Driver/src/stm32f10x_gpio.o
 .debug_loc     0x00009e6e      0x794 project_build//C/mios32/trunk/drivers/STM32F10x/v3.3.0/STM32F10x_StdPeriph_Driver/src/stm32f10x_flash.o
 .debug_loc     0x0000a602      0x848 project_build//C/mios32/trunk/drivers/STM32F10x/v3.3.0/STM32F10x_StdPeriph_Driver/src/stm32f10x_adc.o
 .debug_loc     0x0000ae4a      0x2f8 project_build//C/mios32/trunk/drivers/STM32F10x/v3.3.0/STM32F10x_StdPeriph_Driver/src/stm32f10x_dac.o
 .debug_loc     0x0000b142      0x3ba project_build//C/mios32/trunk/drivers/STM32F10x/v3.3.0/STM32F10x_StdPeriph_Driver/src/stm32f10x_spi.o
 .debug_loc     0x0000b4fc      0x48c project_build//C/mios32/trunk/drivers/STM32F10x/v3.3.0/STM32F10x_StdPeriph_Driver/src/stm32f10x_usart.o
 .debug_loc     0x0000b988      0x5e9 project_build//C/mios32/trunk/drivers/STM32F10x/v3.3.0/STM32F10x_StdPeriph_Driver/src/stm32f10x_i2c.o
 .debug_loc     0x0000bf71      0x122 project_build//C/mios32/trunk/drivers/STM32F10x/v3.3.0/STM32F10x_StdPeriph_Driver/src/stm32f10x_dma.o
 .debug_loc     0x0000c093     0x16c6 project_build//C/mios32/trunk/drivers/STM32F10x/v3.3.0/STM32F10x_StdPeriph_Driver/src/stm32f10x_tim.o
 .debug_loc     0x0000d759      0x519 project_build//C/mios32/trunk/drivers/STM32F10x/v3.3.0/STM32F10x_StdPeriph_Driver/src/stm32f10x_rcc.o
 .debug_loc     0x0000dc72      0x1bf project_build//C/mios32/trunk/drivers/STM32F10x/v3.3.0/STM32F10x_StdPeriph_Driver/src/stm32f10x_rtc.o
 .debug_loc     0x0000de31      0x124 project_build//C/mios32/trunk/drivers/STM32F10x/v3.3.0/STM32F10x_StdPeriph_Driver/src/stm32f10x_bkp.o
 .debug_loc     0x0000df55       0xfc project_build//C/mios32/trunk/drivers/STM32F10x/v3.3.0/STM32F10x_StdPeriph_Driver/src/stm32f10x_pwr.o
 .debug_loc     0x0000e051      0x10a project_build//C/mios32/trunk/drivers/STM32F10x/v3.3.0/STM32F10x_StdPeriph_Driver/src/stm32f10x_exti.o
 .debug_loc     0x0000e15b      0x125 project_build//C/mios32/trunk/drivers/STM32F10x/v3.3.0/STM32F10x_StdPeriph_Driver/src/misc.o
 .debug_loc     0x0000e280      0x298 project_build//C/mios32/trunk/drivers/STM32F10x/v3.3.0/CMSIS/CM3/CoreSupport/core_cm3.o
 .debug_loc     0x0000e518      0x843 project_build//C/mios32/trunk/drivers/STM32F10x/v3.3.0/STM32_USB-FS-Device_Driver/src/usb_core.o
 .debug_loc     0x0000ed5b      0x18f project_build//C/mios32/trunk/drivers/STM32F10x/v3.3.0/STM32_USB-FS-Device_Driver/src/usb_int.o
 .debug_loc     0x0000eeea      0x149 project_build//C/mios32/trunk/drivers/STM32F10x/v3.3.0/STM32_USB-FS-Device_Driver/src/usb_mem.o
 .debug_loc     0x0000f033      0x747 project_build//C/mios32/trunk/drivers/STM32F10x/v3.3.0/STM32_USB-FS-Device_Driver/src/usb_regs.o
 .debug_loc     0x0000f77a      0x206 project_build//C/mios32/trunk/modules/app_lcd/clcd/app_lcd.o
 .debug_loc     0x0000f980       0x7e project_build//C/mios32/trunk/programming_models/traditional/mini_cpp.o
 .debug_loc     0x0000f9fe       0xac project_build//C/mios32/trunk/programming_models/traditional/freertos_heap.o

.debug_macinfo
 *(.debug_macinfo)

.debug_weaknames
 *(.debug_weaknames)

.debug_funcnames
 *(.debug_funcnames)

.debug_typenames
 *(.debug_typenames)

.debug_varnames
 *(.debug_varnames)
OUTPUT(project_build/project.elf elf32-littlearm)

.debug_pubtypes
                0x00000000     0x245f
 .debug_pubtypes
                0x00000000       0xbb project_build/app.o
 .debug_pubtypes
                0x000000bb       0x38 project_build//C/mios32/trunk/programming_models/traditional/main.o
 .debug_pubtypes
                0x000000f3      0x10c project_build//C/mios32/trunk/FreeRTOS/Source/tasks.o
 .debug_pubtypes
                0x000001ff       0x7a project_build//C/mios32/trunk/FreeRTOS/Source/list.o
 .debug_pubtypes
                0x00000279      0x103 project_build//C/mios32/trunk/FreeRTOS/Source/queue.o
 .debug_pubtypes
                0x0000037c       0x33 project_build//C/mios32/trunk/FreeRTOS/Source/portable/GCC/ARM_CM3/port.o
 .debug_pubtypes
                0x000003af       0x7b project_build//C/mios32/trunk/FreeRTOS/Source/portable/MemMang/umm_malloc.o
 .debug_pubtypes
                0x0000042a       0x4e project_build//C/mios32/trunk/mios32/common/mios32_srio.o
 .debug_pubtypes
                0x00000478       0x4e project_build//C/mios32/trunk/mios32/common/mios32_din.o
 .debug_pubtypes
                0x000004c6       0x4e project_build//C/mios32/trunk/mios32/common/mios32_dout.o
 .debug_pubtypes
                0x00000514       0xb5 project_build//C/mios32/trunk/mios32/common/mios32_enc.o
 .debug_pubtypes
                0x000005c9       0xc9 project_build//C/mios32/trunk/mios32/common/mios32_lcd.o
 .debug_pubtypes
                0x00000692      0x134 project_build//C/mios32/trunk/mios32/common/mios32_midi.o
 .debug_pubtypes
                0x000007c6       0xdc project_build//C/mios32/trunk/mios32/common/mios32_osc.o
 .debug_pubtypes
                0x000008a2       0xbd project_build//C/mios32/trunk/mios32/common/mios32_com.o
 .debug_pubtypes
                0x0000095f       0x8c project_build//C/mios32/trunk/mios32/common/mios32_uart_midi.o
 .debug_pubtypes
                0x000009eb       0x68 project_build//C/mios32/trunk/mios32/common/mios32_iic_midi.o
 .debug_pubtypes
                0x00000a53       0x63 project_build//C/mios32/trunk/mios32/common/mios32_iic_bs.o
 .debug_pubtypes
                0x00000ab6       0x94 project_build//C/mios32/trunk/mios32/common/mios32_mf.o
 .debug_pubtypes
                0x00000b4a       0x93 project_build//C/mios32/trunk/mios32/common/mios32_sdcard.o
 .debug_pubtypes
                0x00000bdd       0x81 project_build//C/mios32/trunk/mios32/common/mios32_enc28j60.o
 .debug_pubtypes
                0x00000c5e       0x25 project_build//C/mios32/trunk/mios32/STM32F10x/mios32_bsl.o
 .debug_pubtypes
                0x00000c83       0xf7 project_build//C/mios32/trunk/mios32/STM32F10x/mios32_sys.o
 .debug_pubtypes
                0x00000d7a       0x80 project_build//C/mios32/trunk/mios32/STM32F10x/mios32_irq.o
 .debug_pubtypes
                0x00000dfa      0x15a project_build//C/mios32/trunk/mios32/STM32F10x/mios32_spi.o
 .debug_pubtypes
                0x00000f54       0x12 project_build//C/mios32/trunk/mios32/STM32F10x/mios32_i2s.o
 .debug_pubtypes
                0x00000f66       0xf1 project_build//C/mios32/trunk/mios32/STM32F10x/mios32_board.o
 .debug_pubtypes
                0x00001057       0x90 project_build//C/mios32/trunk/mios32/STM32F10x/mios32_timer.o
 .debug_pubtypes
                0x000010e7       0x80 project_build//C/mios32/trunk/mios32/STM32F10x/mios32_stopwatch.o
 .debug_pubtypes
                0x00001167       0x88 project_build//C/mios32/trunk/mios32/STM32F10x/mios32_delay.o
 .debug_pubtypes
                0x000011ef      0x121 project_build//C/mios32/trunk/mios32/STM32F10x/mios32_ain.o
 .debug_pubtypes
                0x00001310      0x1dc project_build//C/mios32/trunk/mios32/STM32F10x/mios32_usb.o
 .debug_pubtypes
                0x000014ec       0x91 project_build//C/mios32/trunk/mios32/STM32F10x/mios32_usb_midi.o
 .debug_pubtypes
                0x0000157d       0x12 project_build//C/mios32/trunk/mios32/STM32F10x/mios32_usb_com.o
 .debug_pubtypes
                0x0000158f       0xe5 project_build//C/mios32/trunk/mios32/STM32F10x/mios32_uart.o
 .debug_pubtypes
                0x00001674      0x139 project_build//C/mios32/trunk/mios32/STM32F10x/mios32_iic.o
 .debug_pubtypes
                0x000017ad       0x4a project_build//C/mios32/trunk/mios32/common/printf-stdarg.o
 .debug_pubtypes
                0x000017f7       0xc3 project_build//C/mios32/trunk/drivers/STM32F10x/v3.3.0/STM32F10x_StdPeriph_Driver/src/stm32f10x_gpio.o
 .debug_pubtypes
                0x000018ba       0x8d project_build//C/mios32/trunk/drivers/STM32F10x/v3.3.0/STM32F10x_StdPeriph_Driver/src/stm32f10x_flash.o
 .debug_pubtypes
                0x00001947       0x8c project_build//C/mios32/trunk/drivers/STM32F10x/v3.3.0/STM32F10x_StdPeriph_Driver/src/stm32f10x_adc.o
 .debug_pubtypes
                0x000019d3       0x64 project_build//C/mios32/trunk/drivers/STM32F10x/v3.3.0/STM32F10x_StdPeriph_Driver/src/stm32f10x_dac.o
 .debug_pubtypes
                0x00001a37       0xb6 project_build//C/mios32/trunk/drivers/STM32F10x/v3.3.0/STM32F10x_StdPeriph_Driver/src/stm32f10x_spi.o
 .debug_pubtypes
                0x00001aed       0xc9 project_build//C/mios32/trunk/drivers/STM32F10x/v3.3.0/STM32F10x_StdPeriph_Driver/src/stm32f10x_usart.o
 .debug_pubtypes
                0x00001bb6       0xb2 project_build//C/mios32/trunk/drivers/STM32F10x/v3.3.0/STM32F10x_StdPeriph_Driver/src/stm32f10x_i2c.o
 .debug_pubtypes
                0x00001c68       0x98 project_build//C/mios32/trunk/drivers/STM32F10x/v3.3.0/STM32F10x_StdPeriph_Driver/src/stm32f10x_dma.o
 .debug_pubtypes
                0x00001d00       0xd8 project_build//C/mios32/trunk/drivers/STM32F10x/v3.3.0/STM32F10x_StdPeriph_Driver/src/stm32f10x_tim.o
 .debug_pubtypes
                0x00001dd8       0x9e project_build//C/mios32/trunk/drivers/STM32F10x/v3.3.0/STM32F10x_StdPeriph_Driver/src/stm32f10x_rcc.o
 .debug_pubtypes
                0x00001e76       0x6c project_build//C/mios32/trunk/drivers/STM32F10x/v3.3.0/STM32F10x_StdPeriph_Driver/src/stm32f10x_rtc.o
 .debug_pubtypes
                0x00001ee2       0x78 project_build//C/mios32/trunk/drivers/STM32F10x/v3.3.0/STM32F10x_StdPeriph_Driver/src/stm32f10x_bkp.o
 .debug_pubtypes
                0x00001f5a       0x5e project_build//C/mios32/trunk/drivers/STM32F10x/v3.3.0/STM32F10x_StdPeriph_Driver/src/stm32f10x_pwr.o
 .debug_pubtypes
                0x00001fb8       0xa2 project_build//C/mios32/trunk/drivers/STM32F10x/v3.3.0/STM32F10x_StdPeriph_Driver/src/stm32f10x_exti.o
 .debug_pubtypes
                0x0000205a       0x80 project_build//C/mios32/trunk/drivers/STM32F10x/v3.3.0/STM32F10x_StdPeriph_Driver/src/misc.o
 .debug_pubtypes
                0x000020da       0x50 project_build//C/mios32/trunk/drivers/STM32F10x/v3.3.0/CMSIS/CM3/CoreSupport/core_cm3.o
 .debug_pubtypes
                0x0000212a      0x1b7 project_build//C/mios32/trunk/drivers/STM32F10x/v3.3.0/STM32_USB-FS-Device_Driver/src/usb_core.o
 .debug_pubtypes
                0x000022e1       0x38 project_build//C/mios32/trunk/drivers/STM32F10x/v3.3.0/STM32_USB-FS-Device_Driver/src/usb_int.o
 .debug_pubtypes
                0x00002319       0x38 project_build//C/mios32/trunk/drivers/STM32F10x/v3.3.0/STM32_USB-FS-Device_Driver/src/usb_mem.o
 .debug_pubtypes
                0x00002351       0x59 project_build//C/mios32/trunk/drivers/STM32F10x/v3.3.0/STM32_USB-FS-Device_Driver/src/usb_regs.o
 .debug_pubtypes
                0x000023aa       0x7b project_build//C/mios32/trunk/modules/app_lcd/clcd/app_lcd.o
 .debug_pubtypes
                0x00002425       0x1d project_build//C/mios32/trunk/programming_models/traditional/mini_cpp.o
 .debug_pubtypes
                0x00002442       0x1d project_build//C/mios32/trunk/programming_models/traditional/freertos_heap.o

.debug_ranges   0x00000000     0x22a8
 .debug_ranges  0x00000000       0x98 project_build/app.o
 .debug_ranges  0x00000098       0x60 project_build//C/mios32/trunk/programming_models/traditional/main.o
 .debug_ranges  0x000000f8      0x198 project_build//C/mios32/trunk/FreeRTOS/Source/tasks.o
 .debug_ranges  0x00000290       0x30 project_build//C/mios32/trunk/FreeRTOS/Source/list.o
 .debug_ranges  0x000002c0       0xd0 project_build//C/mios32/trunk/FreeRTOS/Source/queue.o
 .debug_ranges  0x00000390       0x58 project_build//C/mios32/trunk/FreeRTOS/Source/portable/GCC/ARM_CM3/port.o
 .debug_ranges  0x000003e8       0x40 project_build//C/mios32/trunk/FreeRTOS/Source/portable/MemMang/umm_malloc.o
 .debug_ranges  0x00000428       0x20 project_build//C/mios32/trunk/programming_models/traditional/startup_stm32f10x_hd.o
 .debug_ranges  0x00000448       0x38 project_build//C/mios32/trunk/mios32/common/mios32_srio.o
 .debug_ranges  0x00000480       0x30 project_build//C/mios32/trunk/mios32/common/mios32_din.o
 .debug_ranges  0x000004b0       0x30 project_build//C/mios32/trunk/mios32/common/mios32_dout.o
 .debug_ranges  0x000004e0       0x58 project_build//C/mios32/trunk/mios32/common/mios32_enc.o
 .debug_ranges  0x00000538       0xb0 project_build//C/mios32/trunk/mios32/common/mios32_lcd.o
 .debug_ranges  0x000005e8      0x260 project_build//C/mios32/trunk/mios32/common/mios32_midi.o
 .debug_ranges  0x00000848      0x160 project_build//C/mios32/trunk/mios32/common/mios32_osc.o
 .debug_ranges  0x000009a8       0x88 project_build//C/mios32/trunk/mios32/common/mios32_com.o
 .debug_ranges  0x00000a30       0xb0 project_build//C/mios32/trunk/mios32/common/mios32_uart_midi.o
 .debug_ranges  0x00000ae0       0x60 project_build//C/mios32/trunk/mios32/common/mios32_iic_midi.o
 .debug_ranges  0x00000b40       0x38 project_build//C/mios32/trunk/mios32/common/mios32_iic_bs.o
 .debug_ranges  0x00000b78       0x50 project_build//C/mios32/trunk/mios32/common/mios32_mf.o
 .debug_ranges  0x00000bc8       0x50 project_build//C/mios32/trunk/mios32/common/mios32_sdcard.o
 .debug_ranges  0x00000c18       0xc8 project_build//C/mios32/trunk/mios32/common/mios32_enc28j60.o
 .debug_ranges  0x00000ce0       0x50 project_build//C/mios32/trunk/mios32/STM32F10x/mios32_sys.o
 .debug_ranges  0x00000d30       0x48 project_build//C/mios32/trunk/mios32/STM32F10x/mios32_irq.o
 .debug_ranges  0x00000d78       0x60 project_build//C/mios32/trunk/mios32/STM32F10x/mios32_spi.o
 .debug_ranges  0x00000dd8      0x138 project_build//C/mios32/trunk/mios32/STM32F10x/mios32_board.o
 .debug_ranges  0x00000f10       0x38 project_build//C/mios32/trunk/mios32/STM32F10x/mios32_timer.o
 .debug_ranges  0x00000f48       0x20 project_build//C/mios32/trunk/mios32/STM32F10x/mios32_stopwatch.o
 .debug_ranges  0x00000f68       0x18 project_build//C/mios32/trunk/mios32/STM32F10x/mios32_delay.o
 .debug_ranges  0x00000f80       0x48 project_build//C/mios32/trunk/mios32/STM32F10x/mios32_ain.o
 .debug_ranges  0x00000fc8       0x90 project_build//C/mios32/trunk/mios32/STM32F10x/mios32_usb.o
 .debug_ranges  0x00001058       0x60 project_build//C/mios32/trunk/mios32/STM32F10x/mios32_usb_midi.o
 .debug_ranges  0x000010b8       0x98 project_build//C/mios32/trunk/mios32/STM32F10x/mios32_uart.o
 .debug_ranges  0x00001150       0x58 project_build//C/mios32/trunk/mios32/STM32F10x/mios32_iic.o
 .debug_ranges  0x000011a8       0x50 project_build//C/mios32/trunk/mios32/common/printf-stdarg.o
 .debug_ranges  0x000011f8       0x98 project_build//C/mios32/trunk/drivers/STM32F10x/v3.3.0/STM32F10x_StdPeriph_Driver/src/stm32f10x_gpio.o
 .debug_ranges  0x00001290       0xe8 project_build//C/mios32/trunk/drivers/STM32F10x/v3.3.0/STM32F10x_StdPeriph_Driver/src/stm32f10x_flash.o
 .debug_ranges  0x00001378      0x128 project_build//C/mios32/trunk/drivers/STM32F10x/v3.3.0/STM32F10x_StdPeriph_Driver/src/stm32f10x_adc.o
 .debug_ranges  0x000014a0       0x68 project_build//C/mios32/trunk/drivers/STM32F10x/v3.3.0/STM32F10x_StdPeriph_Driver/src/stm32f10x_dac.o
 .debug_ranges  0x00001508       0xc0 project_build//C/mios32/trunk/drivers/STM32F10x/v3.3.0/STM32F10x_StdPeriph_Driver/src/stm32f10x_spi.o
 .debug_ranges  0x000015c8       0xf0 project_build//C/mios32/trunk/drivers/STM32F10x/v3.3.0/STM32F10x_StdPeriph_Driver/src/stm32f10x_usart.o
 .debug_ranges  0x000016b8      0x108 project_build//C/mios32/trunk/drivers/STM32F10x/v3.3.0/STM32F10x_StdPeriph_Driver/src/stm32f10x_i2c.o
 .debug_ranges  0x000017c0       0x58 project_build//C/mios32/trunk/drivers/STM32F10x/v3.3.0/STM32F10x_StdPeriph_Driver/src/stm32f10x_dma.o
 .debug_ranges  0x00001818      0x390 project_build//C/mios32/trunk/drivers/STM32F10x/v3.3.0/STM32F10x_StdPeriph_Driver/src/stm32f10x_tim.o
 .debug_ranges  0x00001ba8      0x108 project_build//C/mios32/trunk/drivers/STM32F10x/v3.3.0/STM32F10x_StdPeriph_Driver/src/stm32f10x_rcc.o
 .debug_ranges  0x00001cb0       0x78 project_build//C/mios32/trunk/drivers/STM32F10x/v3.3.0/STM32F10x_StdPeriph_Driver/src/stm32f10x_rtc.o
 .debug_ranges  0x00001d28       0x68 project_build//C/mios32/trunk/drivers/STM32F10x/v3.3.0/STM32F10x_StdPeriph_Driver/src/stm32f10x_bkp.o
 .debug_ranges  0x00001d90       0x50 project_build//C/mios32/trunk/drivers/STM32F10x/v3.3.0/STM32F10x_StdPeriph_Driver/src/stm32f10x_pwr.o
 .debug_ranges  0x00001de0       0x48 project_build//C/mios32/trunk/drivers/STM32F10x/v3.3.0/STM32F10x_StdPeriph_Driver/src/stm32f10x_exti.o
 .debug_ranges  0x00001e28       0x30 project_build//C/mios32/trunk/drivers/STM32F10x/v3.3.0/STM32F10x_StdPeriph_Driver/src/misc.o
 .debug_ranges  0x00001e58       0xb8 project_build//C/mios32/trunk/drivers/STM32F10x/v3.3.0/CMSIS/CM3/CoreSupport/core_cm3.o
 .debug_ranges  0x00001f10       0x88 project_build//C/mios32/trunk/drivers/STM32F10x/v3.3.0/STM32_USB-FS-Device_Driver/src/usb_core.o
 .debug_ranges  0x00001f98       0x30 project_build//C/mios32/trunk/drivers/STM32F10x/v3.3.0/STM32_USB-FS-Device_Driver/src/usb_int.o
 .debug_ranges  0x00001fc8       0x18 project_build//C/mios32/trunk/drivers/STM32F10x/v3.3.0/STM32_USB-FS-Device_Driver/src/usb_mem.o
 .debug_ranges  0x00001fe0      0x228 project_build//C/mios32/trunk/drivers/STM32F10x/v3.3.0/STM32_USB-FS-Device_Driver/src/usb_regs.o
 .debug_ranges  0x00002208       0x60 project_build//C/mios32/trunk/modules/app_lcd/clcd/app_lcd.o
 .debug_ranges  0x00002268       0x20 project_build//C/mios32/trunk/programming_models/traditional/mini_cpp.o
 .debug_ranges  0x00002288       0x20 project_build//C/mios32/trunk/programming_models/traditional/freertos_heap.o
